(dp1
S'limited'
p2
I1
sS'dynamic'
p3
I5
sS'all'
p4
I37
sS'four'
p5
I3
sS'facilities'
p6
I1
sS'protest'
p7
I1
sS'controversial'
p8
I1
sS'undersecretary'
p9
I1
sS'captain'
p10
I1
sS'hate'
p11
I1
sS'poorly'
p12
I1
sS'whose'
p13
I2
sS'explainations'
p14
I1
sS'aug'
p15
I1
sS'insertion'
p16
I3
sS'unanswered'
p17
I1
sS'laurance'
p18
I1
sS'presents'
p19
I1
sS'voted'
p20
I1
sS'under'
p21
I6
sS'billion\x97the'
p22
I1
sS'worth'
p23
I2
sS'updated'
p24
I1
sS'risk'
p25
I1
sS'connects'
p26
I1
sS'screenplay-writer'
p27
I1
sS'every'
p28
I4
sS'trailer'
p29
I2
sS'school'
p30
I5
sS'skills'
p31
I1
sS'cause'
p32
I2
sS'wednesday'
p33
I1
sS'delegate'
p34
I1
sS'296'
p35
I1
sS'tours'
p36
I1
sS'295'
p37
I1
sS'enjoy'
p38
I2
sS'iran\x92s'
p39
I9
sS'force'
p40
I4
sS'leaders'
p41
I1
sS'consistent'
p42
I1
sS'japanese'
p43
I1
sS'budget'
p44
I3
sS'likely'
p45
I1
sS'street'
p46
I1
sS'streep'
p47
I1
sS'blue'
p48
I1
sS'iterating'
p49
I2
sS'integrity'
p50
I1
sS'ned'
p51
I1
sS'sendmail'
p52
I1
sS'fingers'
p53
I1
sS'spokesman'
p54
I1
sS'lights'
p55
I1
sS'sub-continent'
p56
I2
sS'reconstruction'
p57
I3
sS'new'
p58
I23
sS'net'
p59
I3
sS'maverick'
p60
I2
sS'consisting'
p61
I1
sS'told'
p62
I2
sS'never'
p63
I5
sS'disposable'
p64
I1
sS'here'
p65
I10
sS'hundreds'
p66
I1
sS'reported'
p67
I1
sS'studio'
p68
I1
sS'animists'
p69
I1
sS'path'
p70
I1
sS'discrimination'
p71
I1
sS'southerners'
p72
I2
sS'forum'
p73
I1
sS'items'
p74
I1
sS'study'
p75
I2
sS'reports'
p76
I2
sS'published'
p77
I1
sS'analysts'
p78
I1
sS'military'
p79
I2
sS'aka'
p80
I1
sS'changes'
p81
I4
sS'pessimistic'
p82
I1
sS'secure'
p83
I2
sS'explained'
p84
I4
sS'highly'
p85
I3
sS'brought'
p86
I1
sS'visible'
p87
I1
sS'unix'
p88
I1
sS'moral'
p89
I1
sS'guests'
p90
I1
sS'total'
p91
I2
sS'site-wide'
p92
I2
sS'opponents'
p93
I1
sS'm$'
p94
I1
sS'would'
p95
I18
sS'army'
p96
I1
sS'hospital'
p97
I2
sS'mexico'
p98
I1
sS'negative'
p99
I1
sS'backing'
p100
I1
sS'call'
p101
I3
sS'recommend'
p102
I1
sS'25th'
p103
I1
sS'type'
p104
I2
sS'until'
p105
I4
sS'posting'
p106
I2
sS'34-year-old'
p107
I1
sS'wary'
p108
I1
sS'successful'
p109
I1
sS'trousers'
p110
I2
sS'yahoo'
p111
I1
sS'aware'
p112
I1
sS'warm'
p113
I1
sS'arms'
p114
I1
sS'excellent'
p115
I1
sS'91'
p116
I1
sS'90'
p117
I1
sS'92'
p118
I1
sS'casualties'
p119
I1
sS'must'
p120
I6
sS'me'
p121
I19
sS'word'
p122
I2
sS'wore'
p123
I1
sS'40'
p124
I3
sS'1999'
p125
I1
sS'presentation'
p126
I1
sS'work'
p127
I15
sS'first-innings'
p128
I2
sS'zope4intranets'
p129
I5
sS'theories'
p130
I1
sS'movies'
p131
I1
sS'install'
p132
I1
sS'containment'
p133
I1
sS'revenues'
p134
I1
sS'my'
p135
I40
sS'example'
p136
I12
sS'scripting'
p137
I5
sS'vodka'
p138
I1
sS'pints'
p139
I1
sS'programming'
p140
I6
sS'climax'
p141
I1
sS'india'
p142
I1
sS'strangelove'
p143
I1
sS'indies'
p144
I1
sS'want'
p145
I10
sS'\x96'
I3
sS'enterprise-class'
p146
I1
sS'keep'
p147
I2
sS'autonomy'
p148
I1
sS'end'
p149
I6
sS'misstakes'
p150
I1
sS'provide'
p151
I2
sS'travel'
p152
I1
sS'feature'
p153
I3
sS'aren\x92t'
p154
I1
sS'how'
p155
I18
sS'methodology'
p156
I1
sS'writers'
p157
I1
sS'korea\x92s'
p158
I1
sS'record'
p159
I1
sS'multi-level'
p160
I1
sS'description'
p161
I1
sS'after'
p162
I10
sS'confirmed'
p163
I1
sS'lay'
p164
I1
sS'president'
p165
I3
sS'law'
p166
I3
sS'purchase'
p167
I2
sS'masturbator'
p168
I1
sS'attempt'
p169
I1
sS'splendid'
p170
I1
sS'third'
p171
I2
sS'fewer'
p172
I1
sS'youths'
p173
I1
sS'lost'
p174
I3
sS'themselfs'
p175
I1
sS'18th'
p176
I1
sS'algorithms'
p177
I2
sS'enter'
p178
I1
sS'operations'
p179
I1
sS'feedback'
p180
I6
sS'office'
p181
I2
sS'over'
p182
I17
sS'vary'
p183
I1
sS'ramadan'
p184
I1
sS'guidance'
p185
I1
sS'london'
p186
I3
sS'japan'
p187
I1
sS'before'
p188
I10
sS'scoring'
p189
I2
sS'iaea'
p190
I4
sS'fit'
p191
I1
sS'imf'
p192
I1
sS'personal'
p193
I1
sS'highlights'
p194
I1
sS'fix'
p195
I1
sS'expectations'
p196
I1
sS'secede'
p197
I1
sS'better'
p198
I6
sS'fig'
p199
I2
sS"south's"
p200
I1
sS'wales'
p201
I1
sS'weeks'
p202
I2
sS'shear'
p203
I1
sS'virtually'
p204
I1
sS'then'
p205
I12
sS'coffee'
p206
I1
sS'affected'
p207
I1
sS'tourist'
p208
I1
sS'enrich'
p209
I1
sS'safe'
p210
I3
sS'$300m'
p211
I1
sS'break'
p212
I2
sS'9'
I2
sS'effects'
p213
I1
sS'they'
p214
I33
sS'killed'
p215
I1
sS'disburse'
p216
I1
sS'bank'
p217
I5
sS'innings'
p218
I3
sS'odbc'
p219
I1
sS'victory'
p220
I3
sS'each'
p221
I6
sS'went'
p222
I5
sS'winnersh'
p223
I1
sS'side'
p224
I2
sS'lasting'
p225
I1
sS'signing'
p226
I1
sS'schemes'
p227
I1
sS'logs'
p228
I1
sS"zope's"
p229
I1
sS'principles'
p230
I1
sS'solution'
p231
I1
sS'laboratory'
p232
I2
sS'message'
p233
I2
sS'hubbell"'
p234
I1
sS'god'
p235
I2
sS'disclaimer'
p236
I1
sS'two-hour'
p237
I1
sS'tomorrow'
p238
I2
sS'content'
p239
I14
sS'encourage'
p240
I1
sS'-snake'
p241
I1
sS'got'
p242
I8
sS'forth'
p243
I1
sS'probability-of-being-spam'
p244
I1
sS'dsa'
p245
I1
sS'foundation'
p246
I1
sS'asleep'
p247
I1
sS"you're"
p248
I3
sS'veto'
p249
I1
sS'midpoint'
p250
I1
sS'given'
p251
I3
sS'free'
p252
I2
sS'fred'
p253
I1
sS'iran\x94'
p254
I1
sS'disputes'
p255
I1
sS'struggle'
p256
I1
sS"people's"
p257
I1
sS'estimate'
p258
I1
sS'wanted'
p259
I1
sS'enormous'
p260
I1
sS'ate'
p261
I1
sS'messages'
p262
I2
sS'days'
p263
I7
sS"today's"
p264
I1
sS'corrections'
p265
I1
sS'transaction'
p266
I1
sS'onto'
p267
I1
sS'stripe'
p268
I1
sS'already'
p269
I5
sS'features'
p270
I1
sS'grade'
p271
I1
sS'featured'
p272
I1
sS'another'
p273
I8
sS'banderas'
p274
I1
sS'rated'
p275
I1
sS'service'
p276
I2
sS'lego'
p277
I1
sS'opportunity'
p278
I1
sS'top'
p279
I2
sS'"perhaps'
p280
I1
sS'approximately'
p281
I3
sS'needed'
p282
I1
sS'compromise'
p283
I2
sS'too'
p284
I9
sS'hollywood'
p285
I1
sS'john'
p286
I4
sS'dogs'
p287
I1
sS'rewards'
p288
I1
sS'tool'
p289
I1
sS'serve'
p290
I2
sS'took'
p291
I6
sS'bull/pig'
p292
I1
sS'task'
p293
I1
sS'somewhat'
p294
I1
sS'shortly'
p295
I2
sS'summarizing'
p296
I1
sS'anxiety'
p297
I2
sS'participated'
p298
I1
sS'tree'
p299
I2
sS'rate'
p300
I3
sS'nations'
p301
I5
sS'project'
p302
I2
sS'matter'
p303
I4
sS'persuade'
p304
I1
sS'silly'
p305
I1
sS'10th'
p306
I1
sS'thu'
p307
I1
sS'acquisition'
p308
I1
sS'extracting'
p309
I1
sS'screenplay'
p310
I3
sS'ram'
p311
I1
sS'mind'
p312
I2
sS'anybody'
p313
I1
sS'raw'
p314
I1
sS'lbc'
p315
I1
sS'lunchtime'
p316
I1
sS'seen'
p317
I6
sS'seem'
p318
I2
sS'tells'
p319
I1
sS'forced'
p320
I1
sS'foodshops'
p321
I1
sS'reassuring'
p322
I1
sS'convenient'
p323
I1
sS'-'
I5
sS'snow'
p324
I1
sS'oriented'
p325
I1
sS'recommended'
p326
I1
sS'client'
p327
I2
sS'amusing'
p328
I1
sS'rider'
p329
I2
sS'even'
p330
I11
sS'semler'
p331
I4
sS'transactions'
p332
I1
sS'bst'
p333
I1
sS'object'
p334
I23
sS'wells'
p335
I1
sS'germany'
p336
I4
sS'plenty'
p337
I1
sS'commanding'
p338
I1
sS'iterate'
p339
I1
sS'zealand'
p340
I1
sS'peers'
p341
I1
sS'america\x92s'
p342
I6
sS'professor'
p343
I1
sS'camp'
p344
I3
sS'dog'
p345
I1
sS'treaty'
p346
I1
sS'points'
p347
I1
sS'principle'
p348
I1
sS'enterprise'
p349
I3
sS'breathed'
p350
I1
sS'entertaining'
p351
I1
sS'left'
p352
I3
sS'mailing'
p353
I1
sS'came'
p354
I1
sS'saying'
p355
I1
sS'bomb'
p356
I1
sS'saga'
p357
I1
sS'mutual-fund'
p358
I2
sS'givers'
p359
I1
sS'enjoyed'
p360
I2
sS'counteractive'
p361
I1
sS'lessons'
p362
I1
sS'touches'
p363
I1
sS'691'
p364
I1
sS'proposed'
p365
I1
sS'hope\x97despite'
p366
I1
sS'implementation'
p367
I1
sS'explain'
p368
I1
sS'debts'
p369
I1
sS'bush'
p370
I6
sS"here's"
p371
I4
sS'ldap'
p372
I2
sS'integrate'
p373
I1
sS'announce'
p374
I1
sS'folder'
p375
I1
sS'oct'
p376
I19
sS'lady'
p377
I1
sS'do'
p378
I22
sS'sunglasses'
p379
I1
sS'above'
p380
I1
sS'10'
p381
I4
sS'stop'
p382
I1
sS'fluid'
p383
I3
sS'hussain'
p384
I1
sS'coast'
p385
I2
sS'geek'
p386
I1
sS'amazon'
p387
I1
sS'lenders'
p388
I1
sS'despite'
p389
I3
sS'report'
p390
I2
sS'disadvantage'
p391
I1
sS'dr'
p392
I2
sS'runs'
p393
I4
sS'bar'
p394
I1
sS'gareth'
p395
I1
sS'countries'
p396
I9
sS'ever'
p397
I7
sS'method'
p398
I6
sS'twice'
p399
I2
sS'bad'
p400
I6
sS'architecture'
p401
I1
sS'eventually'
p402
I2
sS'release'
p403
I1
sS'metadata'
p404
I2
sS'explanations'
p405
I1
sS'secretary'
p406
I4
sS'searching'
p407
I1
sS'//javascript'
p408
I1
sS'fascinating'
p409
I2
sS'testing'
p410
I1
sS'roadmap'
p411
I1
sS'depends'
p412
I1
sS'decided'
p413
I1
sS'radius'
p414
I1
sS'result'
p415
I2
sS'fail'
p416
I2
sS'best'
p417
I2
sS'subject'
p418
I1
sS'brazil'
p419
I1
sS'said'
p420
I12
sS'ambitions'
p421
I6
sS'lots'
p422
I9
sS'scrap'
p423
I1
sS'tags'
p424
I1
sS'sweden'
p425
I7
sS"there's"
p426
I5
sS'sasieni'
p427
I1
sS'approach'
p428
I1
sS'//www'
p429
I2
sS'we'
p430
I12
sS'terms'
p431
I3
sS'rolled'
p432
I2
sS'weak'
p433
I1
sS'however'
p434
I7
sS'pre-med'
p435
I1
sS'news'
p436
I7
sS'debt'
p437
I4
sS'kitchen'
p438
I3
sS'adapting'
p439
I1
sS'hours'
p440
I2
sS'assistants'
p441
I1
sS'met'
p442
I1
sS'country'
p443
I11
sS'/marketing/index'
p444
I1
sS'against'
p445
I2
sS'participating'
p446
I1
sS'players'
p447
I1
sS'cod'
p448
I1
sS'urls'
p449
I1
sS'logic'
p450
I1
sS'requests'
p451
I5
sS'expense'
p452
I1
sS'confronted'
p453
I1
sS'30th'
p454
I1
sS'$200m'
p455
I1
sS'royal'
p456
I1
sS'2nd'
p457
I1
sS'active'
p458
I1
sS'hugged'
p459
I1
sS'constructively'
p460
I1
sS'trust'
p461
I2
sS'smith'
p462
I3
sS'conference'
p463
I6
sS'googleish'
p464
I1
sS'strong'
p465
I1
sS'eager'
p466
I1
sS'union'
p467
I3
sS'referendum'
p468
I2
sS'been'
p469
I18
sS'quickly'
p470
I2
sS'commission'
p471
I2
sS'much'
p472
I12
sS'basic'
p473
I1
sS'expected'
p474
I4
sS'irna'
p475
I1
sS'lovely'
p476
I2
sS'13/12/2003'
p477
I1
sS'website'
p478
I3
sS'spla'
p479
I7
sS'life'
p480
I3
sS'drugs'
p481
I3
sS'capabilities/features'
p482
I1
sS'darfur'
p483
I1
sS'coherent'
p484
I1
sS'lift'
p485
I1
sS'doubts'
p486
I1
sS'worked'
p487
I1
sS'com/code/js/date-parser/'
p488
I1
sS'163'
p489
I1
sS'mohammad'
p490
I1
sS'exception'
p491
I1
sS't\xeate'
p492
I2
sS'presidency'
p493
I1
sS'economies'
p494
I1
sS'air'
p495
I1
sS'dept'
p496
I1
sS'near'
p497
I2
sS'neat'
p498
I1
sS'teachers'
p499
I1
sS'stopping'
p500
I1
sS'aid'
p501
I5
sS'property'
p502
I1
sS'employees'
p503
I10
sS'launched'
p504
I1
sS'mistake'
p505
I1
sS'spawn'
p506
I1
sS'seven'
p507
I2
sS'"a'
p508
I1
sS'played'
p509
I3
sS'allows'
p510
I4
sS'is'
p511
I160
sS'fuel-cycle'
p512
I1
sS'nutter'
p513
I1
sS'it'
p514
I95
sS'all-boys'
p515
I1
sS'shame'
p516
I1
sS'experts'
p517
I3
sS'deckers'
p518
I1
sS'in'
p519
I166
sS'faked'
p520
I1
sS'conditioner'
p521
I1
sS'breakfast'
p522
I1
sS'if'
p523
I26
sS'containing'
p524
I1
sS'representatives'
p525
I1
sS'perform'
p526
I1
sS'things'
p527
I8
sS'make'
p528
I12
sS'linked'
p529
I1
sS'complex'
p530
I2
sS'potentially'
p531
I1
sS'unfortunate'
p532
I1
sS'several'
p533
I3
sS'showing'
p534
I1
sS'european'
p535
I8
sS'wheel'
p536
I1
sS'quentin'
p537
I1
sS'hand'
p538
I3
sS'afraid'
p539
I1
sS'portal'
p540
I1
sS'kim'
p541
I1
sS'insisted'
p542
I1
sS'overs'
p543
I1
sS"i'm"
p544
I11
sS'thoughts'
p545
I1
sS'dhaka'
p546
I1
sS'kept'
p547
I2
sS'director-general'
p548
I1
sS'charlie'
p549
I4
sS'vice-president'
p550
I1
sS'1972'
p551
I1
sS'80%'
p552
I1
sS'american-imposed'
p553
I1
sS'practices'
p554
I1
sS'resuming'
p555
I1
sS'centres'
p556
I1
sS'the'
p557
I635
sS'800'
p558
I1
sS'33'
p559
I2
sS'epa'
p560
I1
sS'protocol'
p561
I4
sS'departed'
p562
I1
sS'quoted'
p563
I1
sS'photo'
p564
I1
sS'laptop'
p565
I2
sS'ideas'
p566
I5
sS'thanks'
p567
I2
sS'human'
p568
I2
sS'facts'
p569
I1
sS'yes'
p570
I1
sS'yet'
p571
I5
sS'mohamed'
p572
I2
sS'previous'
p573
I4
sS'nicolas'
p574
I3
sS'cervix'
p575
I1
sS'trone'
p576
I1
sS'monitored'
p577
I1
sS'ham'
p578
I2
sS'equipment'
p579
I2
sS'27th'
p580
I1
sS'old-fashioned'
p581
I1
sS'had'
p582
I21
sS'squad'
p583
I2
sS'board'
p584
I1
sS'easy'
p585
I6
sS'prison'
p586
I1
sS'has'
p587
I37
sS'hat'
p588
I1
sS'gave'
p589
I4
sS'which'
p590
I36
sS'osman'
p591
I1
sS'breaks'
p592
I1
sS'progressed'
p593
I1
sS'possible'
p594
I4
sS'arab'
p595
I1
sS'performance'
p596
I2
sS'unique'
p597
I2
sS'advanced'
p598
I3
sS'apart'
p599
I2
sS'desire'
p600
I1
sS'gift'
p601
I1
sS'unnecessary'
p602
I1
sS'remind'
p603
I1
sS'offices'
p604
I2
sS'arbitrary'
p605
I3
sS'invaluable'
p606
I1
sS'security'
p607
I13
sS'www'
p608
I1
sS'right'
p609
I3
sS'old'
p610
I5
sS'deal'
p611
I2
sS'people'
p612
I20
sS'ballooned'
p613
I1
sS'somehow'
p614
I1
sS'50'
p615
I2
sS'born'
p616
I1
sS'donald'
p617
I2
sS'precautions'
p618
I1
sS'issuetrackermasscontainer'
p619
I1
sS'orchid'
p620
I1
sS'denies'
p621
I1
sS'attendees'
p622
I2
sS'for'
p623
I105
sS'bottom'
p624
I1
sS'stronger'
p625
I1
sS'notification'
p626
I1
sS'comments'
p627
I2
sS'everything'
p628
I1
sS'uma'
p629
I2
sS'allocate'
p630
I1
sS"kubrick's"
p631
I1
sS'christmas'
p632
I1
sS'localhost'
p633
I1
sS'core'
p634
I1
sS'marketing'
p635
I1
sS'viewer'
p636
I1
sS'post'
p637
I1
sS'challanges'
p638
I1
sS'properties'
p639
I2
sS'hardliners'
p640
I3
sS'uranium-enrichment'
p641
I1
sS'dollars'
p642
I1
sS'citizens'
p643
I1
sS'plus'
p644
I1
sS'afternoon'
p645
I2
sS'shared'
p646
I1
sS'efforts'
p647
I2
sS'automatically'
p648
I2
sS'managers'
p649
I5
sS'lied'
p650
I1
sS'civil'
p651
I2
sS"world's"
p652
I1
sS'accommodate'
p653
I1
sS'lies'
p654
I1
sS'1990s'
p655
I1
sS'support'
p656
I4
sS'flying'
p657
I1
sS'111kb'
p658
I1
sS'fight'
p659
I1
sS'width'
p660
I1
sS'clinical'
p661
I1
sS'editor'
p662
I1
sS'way'
p663
I7
sS'resulted'
p664
I1
sS'music'
p665
I1
sS'was'
p666
I54
sS'war'
p667
I6
sS'happy'
p668
I2
sS'lowest'
p669
I1
sS'head'
p670
I4
sS'successfully'
p671
I1
sS'form'
p672
I5
sS'offer'
p673
I2
sS'understandably'
p674
I1
sS'attempted'
p675
I2
sS'becoming'
p676
I2
sS'abyei'
p677
I2
sS'26th'
p678
I1
sS'failure'
p679
I6
sS'heat'
p680
I1
sS'catalyst'
p681
I1
sS'true'
p682
I1
sS'thttpd'
p683
I1
sS'management/handling/sharing/publication'
p684
I1
sS'builds'
p685
I1
sS'versions'
p686
I1
sS'inside'
p687
I3
sS'tell'
p688
I1
sS'generosity'
p689
I1
sS'economic'
p690
I1
sS'unanimous'
p691
I1
sS'90%'
p692
I1
sS'maryl'
p693
I1
sS'proud'
p694
I1
sS'fury'
p695
I1
sS'request'
p696
I8
sS'covers'
p697
I1
sS'kaufman'
p698
I3
sS'expertise'
p699
I3
sS'promised'
p700
I2
sS'ericsson'
p701
I1
sS'trip'
p702
I1
sS'shit'
p703
I3
sS'regime'
p704
I1
sS'protested'
p705
I1
sS'floor'
p706
I1
sS'whereas'
p707
I2
sS'alerts'
p708
I1
sS'when'
p709
I25
sS'reality'
p710
I1
sS'negotiators'
p711
I1
sS'sybase'
p712
I1
sS'holding'
p713
I1
sS'92-run'
p714
I1
sS'test'
p715
I13
sS'unwilling'
p716
I1
sS'developers'
p717
I7
sS'kenyan'
p718
I1
sS'picture'
p719
I5
sS'batsman'
p720
I1
sS'welcome'
p721
I1
sS'notepad'
p722
I1
sS'wars'
p723
I1
sS'trailers'
p724
I1
sS'concurrent'
p725
I1
sS'webserver'
p726
I1
sS'muslims'
p727
I1
sS'ridges'
p728
I1
sS'sql'
p729
I6
sS'variable'
p730
I2
sS'cooper'
p731
I1
sS'weekend'
p732
I1
sS'rowhani'
p733
I2
sS'billion'
p734
I9
sS'younger'
p735
I5
sS'faster'
p736
I1
sS'modules'
p737
I1
sS'daily'
p738
I1
sS'time'
p739
I19
sS'conferred'
p740
I1
sS'collegues'
p741
I2
sS'befriend'
p742
I1
sS'managed'
p743
I1
sS'switched'
p744
I1
sS'dance'
p745
I1
sS'global'
p746
I3
sS'alternatives'
p747
I1
sS'focus'
p748
I1
sS'deliveries'
p749
I1
sS'leads'
p750
I1
sS'manager'
p751
I3
sS'skin'
p752
I1
sS'milk'
p753
I1
sS'certainly'
p754
I1
sS'schoolboys'
p755
I1
sS'mayflower'
p756
I1
sS'summarises'
p757
I1
sS'technique'
p758
I3
sS'environment'
p759
I2
sS'iraqi'
p760
I2
sS'finally'
p761
I1
sS'marks'
p762
I1
sS'sovereignty'
p763
I1
sS'lobbying'
p764
I1
sS'myles'
p765
I1
sS'tourists\x92'
p766
I1
sS'string'
p767
I1
sS'advantage'
p768
I2
sS'sequal'
p769
I1
sS'could'
p770
I8
sS'sponsors'
p771
I1
sS'choice'
p772
I1
sS'join'
p773
I1
sS'datetime'
p774
I1
sS'governments'
p775
I1
sS'aggressively'
p776
I1
sS'reining'
p777
I1
sS'solves'
p778
I1
sS'did'
p779
I6
sS'12th'
p780
I1
sS'posts'
p781
I1
sS'brother'
p782
I2
sS'standards'
p783
I2
sS'leave'
p784
I1
sS'item'
p785
I1
sS'excellence'
p786
I2
sS'subway'
p787
I1
sS'team'
p788
I3
sS'quick'
p789
I2
sS'guy'
p790
I1
sS'fujian'
p791
I1
sS'olympia'
p792
I1
sS'prevent'
p793
I1
sS'talked'
p794
I1
sS'says'
p795
I5
sS'tougher'
p796
I3
sS'dealing'
p797
I1
sS'sign'
p798
I1
sS'jacky'
p799
I1
sS'colin'
p800
I2
sS'cost'
p801
I2
sS'patient'
p802
I1
sS'floodlight'
p803
I3
sS'drinks'
p804
I2
sS'afghanistan'
p805
I2
sS'30%'
p806
I1
sS'appear'
p807
I1
sS'current'
p808
I3
sS'template'
p809
I2
sS'relational'
p810
I2
sS'supporting'
p811
I1
sS'explosion'
p812
I1
sS'ms'
p813
I1
sS'honour'
p814
I1
sS'muslim'
p815
I2
sS'water'
p816
I1
sS'downloaded'
p817
I1
sS'slow'
p818
I1
sS'yards'
p819
I1
sS'address'
p820
I1
sS'apache'
p821
I6
sS'along'
p822
I1
sS'harmison'
p823
I2
sS'supplying'
p824
I1
sS'sending'
p825
I2
sS'traning'
p826
I1
sS'thirty'
p827
I1
sS'institute'
p828
I1
sS'root'
p829
I1
sS'grinned'
p830
I1
sS'partitionable'
p831
I1
sS'diagnosed'
p832
I1
sS'suggestion'
p833
I1
sS'435'
p834
I1
sS'all-out'
p835
I1
sS'tasks'
p836
I4
sS'love'
p837
I2
sS'extra'
p838
I6
sS'trescothick'
p839
I1
sS'tweak'
p840
I1
sS'lending'
p841
I1
sS'amuzing'
p842
I2
sS'bloody'
p843
I1
sS're-evaluate'
p844
I1
sS'fake'
p845
I1
sS'sweating'
p846
I1
sS'wicketkeeper'
p847
I1
sS'troops'
p848
I3
sS'working'
p849
I2
sS'positive'
p850
I1
sS'england\x92s'
p851
I5
sS'visit'
p852
I1
sS'tightly'
p853
I1
sS'abroad'
p854
I1
sS'handles'
p855
I1
sS'opposed'
p856
I1
sS'wondering'
p857
I1
sS'films'
p858
I5
sS'selects'
p859
I1
sS'today'
p860
I9
sS'wicked'
p861
I1
sS'smeared'
p862
I1
sS'sharing'
p863
I2
sS'clicking'
p864
I1
sS'minnows'
p865
I1
sS'employee'
p866
I2
sS'senate\x92s'
p867
I1
sS'cases'
p868
I3
sS'configurable/skinnable'
p869
I1
sS'effort'
p870
I2
sS'amelie'
p871
I1
sS'mascot'
p872
I1
sS'bowler'
p873
I1
sS'barbacue'
p874
I1
sS'maintainable'
p875
I1
sS'thousands'
p876
I1
sS'systembolaget'
p877
I1
sS'inflamed'
p878
I1
sS'reviews'
p879
I1
sS'drags'
p880
I1
sS'can'
p881
I37
sS'believed'
p882
I1
sS'batty'
p883
I1
sS'arrive'
p884
I1
sS'heart'
p885
I1
sS'dedicated'
p886
I1
sS'months'
p887
I4
sS'-monty'
p888
I1
sS'chi-web'
p889
I1
sS'december'
p890
I2
sS'geeks'
p891
I1
sS"didn't"
p892
I9
sS'agent'
p893
I3
sS'sample'
p894
I2
sS'pointedly'
p895
I1
sS'bezos'
p896
I1
sS'dropped'
p897
I2
sS'council'
p898
I6
sS'allowed'
p899
I2
sS'stole'
p900
I2
sS'swedish'
p901
I4
sS'productive'
p902
I1
sS'popuplink'
p903
I1
sS'means'
p904
I2
sS'write'
p905
I3
sS'till'
p906
I2
sS'sunday'
p907
I1
sS'sword'
p908
I1
sS'holidays'
p909
I1
sS'ensure'
p910
I1
sS'economy'
p911
I1
sS'map'
p912
I2
sS'staying'
p913
I1
sS'designer'
p914
I1
sS'may'
p915
I14
sS'clone'
p916
I1
sS'use'
p917
I14
sS'southern'
p918
I4
sS'applications'
p919
I4
sS'produce'
p920
I1
sS'designed'
p921
I4
sS'such'
p922
I14
sS'guys'
p923
I1
sS'man'
p924
I2
sS'johnson'
p925
I2
sS'maybe'
p926
I4
sS'worryingly'
p927
I1
sS'fluent'
p928
I2
sS'cannot'
p929
I1
sS'so'
p930
I27
sS'african'
p931
I2
sS'hassan'
p932
I1
sS'talk'
p933
I1
sS'typical'
p934
I1
sS'cute'
p935
I2
sS'constituents'
p936
I1
sS'making'
p937
I3
sS'years'
p938
I12
sS'course'
p939
I7
sS'tablets'
p940
I1
sS'stayed'
p941
I1
sS'longest-running'
p942
I1
sS'statements'
p943
I3
sS'still'
p944
I8
sS'machine'
p945
I2
sS'group'
p946
I4
sS'monitor'
p947
I1
sS'interesting'
p948
I6
sS'platform'
p949
I2
sS'apec'
p950
I2
sS'policy'
p951
I1
sS'mail'
p952
I2
sS'norway'
p953
I1
sS'happened'
p954
I4
sS'correspondence'
p955
I1
sS'halt'
p956
I2
sS'civilian'
p957
I1
sS'spambayes'
p958
I3
sS'records'
p959
I1
sS'adrenaline'
p960
I1
sS'half'
p961
I3
sS'not'
p962
I30
sS'now'
p963
I14
sS'provision'
p964
I1
sS'hall'
p965
I2
sS'nor'
p966
I1
sS'down'
p967
I5
sS'term'
p968
I1
sS'placate'
p969
I1
sS'name'
p970
I1
sS'james'
p971
I1
sS'settings'
p972
I3
sS'stockholm'
p973
I1
sS'bowling'
p974
I1
sS'full-text'
p975
I1
sS'domain'
p976
I1
sS'fry-it'
p977
I2
sS'conventions'
p978
I1
sS'challenges'
p979
I2
sS'fires'
p980
I1
sS'persian'
p981
I1
sS'sponsor'
p982
I1
sS'year'
p983
I13
sS'eu'
p984
I2
sS'et'
p985
I1
sS'girl'
p986
I1
sS'worried'
p987
I1
sS'monitors'
p988
I1
sS'fu'
p989
I1
sS'album'
p990
I1
sS'accomplish'
p991
I1
sS'793'
p992
I1
sS'3rd'
p993
I1
sS'space'
p994
I1
sS'\x93we\x92d'
p995
I1
sS'irony'
p996
I1
sS'cancels'
p997
I1
sS'looking'
p998
I1
sS'opener'
p999
I1
sS'imperative'
p1000
I2
sS"shouldn't"
p1001
I1
sS'internet'
p1002
I1
sS'topcoder'
p1003
I1
sS'formula'
p1004
I1
sS'rebuilding'
p1005
I2
sS'regions\x97the'
p1006
I1
sS'monster'
p1007
I1
sS'state'
p1008
I9
sS'cars'
p1009
I1
sS'million'
p1010
I3
sS'mechanisms'
p1011
I1
sS'pumping'
p1012
I1
sS'governing'
p1013
I2
sS'inputting'
p1014
I1
sS'complicated'
p1015
I1
sS'rebel'
p1016
I1
sS'besides'
p1017
I1
sS'org'
p1018
I1
sS'inevitable'
p1019
I1
sS'care'
p1020
I1
sS'envies'
p1021
I1
sS'reflect'
p1022
I1
sS'training'
p1023
I5
sS'language'
p1024
I5
sS'ministry'
p1025
I2
sS'year\x94'
p1026
I1
sS'transition'
p1027
I1
sS'iterative'
p1028
I1
sS'vehemently'
p1029
I1
sS'16th'
p1030
I2
sS'motion'
p1031
I1
sS'thing'
p1032
I4
sS'plane'
p1033
I1
sS'place'
p1034
I6
sS'192mb'
p1035
I1
sS'think'
p1036
I11
sS'first'
p1037
I20
sS'suspend'
p1038
I1
sS'variables'
p1039
I2
sS'symbolic'
p1040
I1
sS'cpus'
p1041
I1
sS'one'
p1042
I35
sS'soaring'
p1043
I1
sS'americans'
p1044
I2
sS'fast'
p1045
I4
sS'carry'
p1046
I3
sS'xp'
p1047
I1
sS'open'
p1048
I4
sS'george'
p1049
I3
sS'size'
p1050
I1
sS'city'
p1051
I7
sS'little'
p1052
I11
sS'necessarily'
p1053
I1
sS'checked'
p1054
I1
sS'caught'
p1055
I3
sS'else\x92s'
p1056
I1
sS'anyone'
p1057
I2
sS'2'
I4
sS'draft'
p1058
I1
sS'realization'
p1059
I1
sS'white'
p1060
I5
sS'structures'
p1061
I2
sS'west'
p1062
I4
sS'gives'
p1063
I2
sS'catching'
p1064
I1
sS'eyes'
p1065
I1
sS'mostly'
p1066
I6
sS'that'
p1067
I118
sS'eliminates'
p1068
I1
sS'cornwall'
p1069
I1
sS'criticize'
p1070
I1
sS'uranium'
p1071
I4
sS'copy'
p1072
I2
sS'than'
p1073
I12
sS'semantics'
p1074
I1
sS'wide'
p1075
I1
sS'13'
p1076
I1
sS'12'
p1077
I3
sS'$10'
p1078
I1
sS'14'
p1079
I1
sS'17'
p1080
I1
sS'16'
p1081
I2
sS'hoyle'
p1082
I1
sS'18'
p1083
I1
sS'require'
p1084
I1
sS'recruit'
p1085
I1
sS'officials'
p1086
I5
sS'receptionists'
p1087
I1
sS'were'
p1088
I16
sS'standardised'
p1089
I1
sS'accessed'
p1090
I1
sS'fact-based'
p1091
I1
sS'outcome'
p1092
I1
sS'russia'
p1093
I3
sS'browser'
p1094
I3
sS'and'
p1095
I281
sS'gathering'
p1096
I1
sS'angel'
p1097
I1
sS'referer'
p1098
I1
sS'correction'
p1099
I1
sS'turned'
p1100
I2
sS'overnight'
p1101
I1
sS'medical'
p1102
I1
sS'say'
p1103
I5
sS'conspiracy'
p1104
I1
sS'rent'
p1105
I1
sS'sells'
p1106
I1
sS"iraq's"
p1107
I2
sS'saw'
p1108
I4
sS'any'
p1109
I8
sS'preservative'
p1110
I1
sS'offering'
p1111
I4
sS'extrovert'
p1112
I1
sS'aside'
p1113
I1
sS'dining'
p1114
I1
sS'emphasis'
p1115
I1
sS'animation'
p1116
I2
sS'take'
p1117
I5
sS'online'
p1118
I1
sS'invinsible'
p1119
I1
sS'europeans'
p1120
I2
sS'authorising'
p1121
I1
sS'200'
p1122
I2
sS'begin'
p1123
I1
sS'sure'
p1124
I3
sS'multiple'
p1125
I1
sS'normal'
p1126
I2
sS'printable'
p1127
I1
sS'paged'
p1128
I1
sS'paid'
p1129
I4
sS'webdav-based'
p1130
I1
sS'stormed'
p1131
I1
sS'pair'
p1132
I1
sS'america'
p1133
I15
sS'pages'
p1134
I1
sS'wireless'
p1135
I2
sS'lawn'
p1136
I1
sS'fairy'
p1137
I1
sS'31st'
p1138
I1
sS'average'
p1139
I1
sS'adopt'
p1140
I1
sS'melanie'
p1141
I1
sS'sunset'
p1142
I1
sS'nuclear'
p1143
I19
sS'atlantic'
p1144
I2
sS'senior'
p1145
I1
sS'cobra'
p1146
I1
sS'show'
p1147
I5
sS'formal'
p1148
I1
sS'able'
p1149
I6
sS'recipe'
p1150
I1
sS'contemporary'
p1151
I1
sS'sites'
p1152
I3
sS'discovered'
p1153
I1
sS'scarce'
p1154
I1
sS'crane'
p1155
I1
sS'fifth'
p1156
I1
sS'ground'
p1157
I3
sS'xml'
p1158
I2
sS'snack'
p1159
I2
sS'gulf'
p1160
I1
sS'title'
p1161
I3
sS'weapons\x97denied'
p1162
I1
sS'elbaradei'
p1163
I1
sS'liberation'
p1164
I1
sS'only'
p1165
I23
sS'going'
p1166
I5
sS'black'
p1167
I3
sS'treasury'
p1168
I1
sS'carolina'
p1169
I1
sS'get'
p1170
I12
sS'garang'
p1171
I1
sS'blinks'
p1172
I1
sS'2mb'
p1173
I1
sS'killers'
p1174
I1
sS"sudan's"
p1175
I3
sS'nearly'
p1176
I4
sS'iraq\x92s'
p1177
I3
sS'suggest'
p1178
I2
sS'denials'
p1179
I1
sS'geometric'
p1180
I1
sS'celebrate'
p1181
I1
sS'resource'
p1182
I1
sS'artist'
p1183
I1
sS'incutio'
p1184
I1
sS'c++'
p1185
I1
sS'summary'
p1186
I3
sS'miles'
p1187
I1
sS'worries'
p1188
I1
sS'where'
p1189
I11
sS'worrying'
p1190
I1
sS'vision'
p1191
I1
sS'trilogy'
p1192
I1
sS'hour'
p1193
I1
sS'actively'
p1194
I1
sS'com/calendars/fuushikaden-pop-up-calendar'
p1195
I1
sS'com/'
p1196
I1
sS'parking'
p1197
I2
sS'stanley'
p1198
I1
sS'calendar'
p1199
I1
sS'sport'
p1200
I3
sS'concern'
p1201
I1
sS'loudspeaker'
p1202
I1
sS'suffer'
p1203
I1
sS'voluntary'
p1204
I1
sS'subsequent'
p1205
I1
sS'review'
p1206
I3
sS'commitments'
p1207
I1
sS'weapons'
p1208
I2
sS'haque'
p1209
I1
sS'3'
I7
sS'between'
p1210
I8
sS'cancers'
p1211
I1
sS"tuesday's"
p1212
I1
sS'reading'
p1213
I1
sS'across'
p1214
I4
sS'tux'
p1215
I2
sS'notice'
p1216
I3
sS'infrastructure'
p1217
I1
sS'jobs'
p1218
I1
sS'august'
p1219
I1
sS'screen'
p1220
I2
sS'khartoum'
p1221
I4
sS'guitar'
p1222
I1
sS'spare'
p1223
I2
sS'article'
p1224
I5
sS'cervical'
p1225
I5
sS'come'
p1226
I5
sS'aljazeera'
p1227
I1
sS'dates'
p1228
I1
sS'rugby'
p1229
I1
sS'talented'
p1230
I1
sS'libya'
p1231
I1
sS'//news'
p1232
I1
sS'residence'
p1233
I1
sS'according'
p1234
I2
sS'nile'
p1235
I1
sS's'
I2
sS'disappointment'
p1236
I1
sS'wheels'
p1237
I1
sS'expression'
p1238
I1
sS'whitings'
p1239
I2
sS'comes'
p1240
I3
sS'nearby'
p1241
I1
sS'pakistan'
p1242
I1
sS'filtering'
p1243
I1
sS'key'
p1244
I2
sS'cancer'
p1245
I8
sS'overview'
p1246
I1
sS'jeans'
p1247
I1
sS'period'
p1248
I1
sS'60'
p1249
I1
sS'twin'
p1250
I1
sS'64'
p1251
I2
sS'cancel'
p1252
I1
sS'moreover'
p1253
I1
sS'writing'
p1254
I2
sS'boat'
p1255
I1
sS'turkey'
p1256
I3
sS'arts'
p1257
I1
sS'laidback'
p1258
I1
sS'cares'
p1259
I1
sS'mounting'
p1260
I1
sS'rebuild'
p1261
I1
sS'mark'
p1262
I1
sS'dictator'
p1263
I1
sS'confessions'
p1264
I1
sS'500'
p1265
I2
sS'engine'
p1266
I1
sS'zope'
p1267
I48
sS'lanes'
p1268
I1
sS'searches'
p1269
I1
sS'$87m'
p1270
I1
sS'offered'
p1271
I3
sS'photos'
p1272
I6
sS'semco'
p1273
I3
sS'proven'
p1274
I1
sS'declaration'
p1275
I1
sS'careful'
p1276
I1
sS'irrelevant'
p1277
I1
sS'encapsulates'
p1278
I1
sS'those'
p1279
I3
sS'hodgson'
p1280
I1
sS'sound'
p1281
I2
sS'swiming'
p1282
I1
sS'rajin'
p1283
I1
sS'these'
p1284
I12
sS'also'
p1285
I27
sS'polls'
p1286
I1
sS'engineering'
p1287
I1
sS'arnold'
p1288
I1
sS"haven't"
p1289
I1
sS'policies'
p1290
I1
sS'promising'
p1291
I2
sS'newspaper'
p1292
I2
sS'exist'
p1293
I2
sS'slapping'
p1294
I1
sS'taking'
p1295
I6
sS'punches'
p1296
I1
sS'coupled'
p1297
I1
sS'them'
p1298
I15
sS'parse'
p1299
I1
sS'middle'
p1300
I5
sS'sudanese'
p1301
I2
sS'good'
p1302
I7
sS'p900'
p1303
I1
sS'heels'
p1304
I1
sS'kenya'
p1305
I1
sS'technology'
p1306
I5
sS'fame'
p1307
I1
sS'worry'
p1308
I1
sS'pap'
p1309
I2
sS'different'
p1310
I6
sS'revolutions'
p1311
I1
sS'develop'
p1312
I3
sS'author'
p1313
I2
sS'$20'
p1314
I3
sS'reminded'
p1315
I1
sS'tour'
p1316
I1
sS'same'
p1317
I5
sS'check'
p1318
I4
sS'authentication'
p1319
I1
sS'html'
p1320
I4
sS'pai'
p1321
I1
sS'nomatter'
p1322
I1
sS'document'
p1323
I10
sS'1-540-361-1710'
p1324
I1
sS'events'
p1325
I2
sS'status'
p1326
I2
sS'putin'
p1327
I1
sS'persons'
p1328
I1
sS'running'
p1329
I1
sS'intended'
p1330
I1
sS'grenna'
p1331
I1
sS'totally'
p1332
I2
sS'fasting'
p1333
I1
sS'amazes'
p1334
I1
sS'markup'
p1335
I1
sS'no'
p1336
I17
sS'costs'
p1337
I2
sS'solve'
p1338
I1
sS'extensible'
p1339
I3
sS'components'
p1340
I1
sS'model'
p1341
I6
sS'\x93you'
p1342
I2
sS'charged'
p1343
I1
sS'summer'
p1344
I2
sS'sprayed'
p1345
I1
sS'being'
p1346
I9
sS'money'
p1347
I9
sS'rest'
p1348
I3
sS'foot'
p1349
I1
sS'kill'
p1350
I2
sS'touch'
p1351
I1
sS'announcement'
p1352
I1
sS'death'
p1353
I1
sS'winner'
p1354
I1
sS'paricular'
p1355
I1
sS'thinking'
p1356
I2
sS'rose'
p1357
I1
sS'seems'
p1358
I2
sS'except'
p1359
I1
sS'desktop'
p1360
I1
sS'blog'
p1361
I1
sS'lets'
p1362
I2
sS'mod_perl'
p1363
I1
sS'4'
I2
sS'struck'
p1364
I1
sS'disrupt'
p1365
I1
sS'momentum'
p1366
I2
sS'real'
p1367
I5
sS'around'
p1368
I3
sS'marcus'
p1369
I2
sS'read'
p1370
I14
sS'ruler'
p1371
I1
sS'virginia'
p1372
I2
sS'early'
p1373
I1
sS'mom'
p1374
I1
sS'world'
p1375
I7
sS'execution'
p1376
I1
sS'rebecca'
p1377
I1
sS'vague'
p1378
I1
sS'dare'
p1379
I1
sS'stranger'
p1380
I1
sS'nt'
p1381
I1
sS'buddies'
p1382
I1
sS'serves'
p1383
I1
sS'server'
p1384
I13
sS'thorpe'
p1385
I8
sS'donations'
p1386
I2
sS'either'
p1387
I1
sS'retailers'
p1388
I1
sS'fully'
p1389
I1
sS'served'
p1390
I6
sS'nice'
p1391
I4
sS'stationary'
p1392
I1
sS'reduced'
p1393
I1
sS'auditorium'
p1394
I1
sS"iran's"
p1395
I7
sS'templating'
p1396
I2
sS'dilbert'
p1397
I1
sS'conditional'
p1398
I2
sS'dole'
p1399
I1
sS'lackeys'
p1400
I1
sS'images'
p1401
I4
sS'thinks'
p1402
I1
sS'provided'
p1403
I2
sS'islington'
p1404
I1
sS'caribbean'
p1405
I1
sS'sudan'
p1406
I7
sS'fluids'
p1407
I1
sS'stops'
p1408
I1
sS'deficit'
p1409
I2
sS'provides'
p1410
I12
sS'23rd'
p1411
I7
sS'toolkit'
p1412
I1
sS'considering'
p1413
I3
sS'$235m'
p1414
I1
sS'felt'
p1415
I1
sS'scientific'
p1416
I1
sS'business'
p1417
I1
sS'retains'
p1418
I1
sS'credits'
p1419
I1
sS'found'
p1420
I3
sS'wickets'
p1421
I3
sS"emp_id='"
p1422
I1
sS'manufacturer'
p1423
I1
sS'on'
p1424
I104
sS'stone'
p1425
I1
sS'central'
p1426
I1
sS'of'
p1427
I264
sS'industry'
p1428
I2
sS'violence'
p1429
I2
sS'$55'
p1430
I1
sS'fell'
p1431
I2
sS'stand'
p1432
I2
sS'neighbor'
p1433
I1
sS'decent'
p1434
I1
sS'or'
p1435
I40
sS'road'
p1436
I1
sS'outlook'
p1437
I1
sS"document's"
p1438
I1
sS'maureen'
p1439
I1
sS'two-day'
p1440
I1
sS'authorities'
p1441
I1
sS'inbox'
p1442
I1
sS'dreaming'
p1443
I2
sS'actually'
p1444
I3
sS'your'
p1445
I18
sS'snakes'
p1446
I1
sS'forwarded'
p1447
I1
sS'her'
p1448
I3
sS'there'
p1449
I14
sS'philadelphia'
p1450
I1
sS'strict'
p1451
I1
sS'compliant'
p1452
I1
sS'drank'
p1453
I1
sS'low'
p1454
I1
sS'lot'
p1455
I6
sS'mollify'
p1456
I1
sS'decisive'
p1457
I1
sS'fish'
p1458
I2
sS'complete'
p1459
I4
sS'enough'
p1460
I3
sS'jun'
p1461
I1
sS'delayed'
p1462
I1
sS'jul'
p1463
I2
sS'technologies'
p1464
I1
sS'trying'
p1465
I1
sS'with'
p1466
I91
sS"bush's"
p1467
I1
sS'longer'
p1468
I2
sS"they're"
p1469
I4
sS'october'
p1470
I6
sS'cytology'
p1471
I1
sS'offical'
p1472
I1
sS'spamming'
p1473
I1
sS'vhs'
p1474
I1
sS"can't"
p1475
I3
sS'connect'
p1476
I1
sS'detailed'
p1477
I1
sS'gone'
p1478
I2
sS'his'
p1479
I28
sS'ab'
p1480
I1
sS'worklife'
p1481
I2
sS'cinema'
p1482
I5
sS'taste'
p1483
I1
sS'certain'
p1484
I1
sS'moved'
p1485
I2
sS'sales'
p1486
I4
sS'an'
p1487
I33
sS'as'
p1488
I66
sS'at'
p1489
I49
sS'file'
p1490
I1
sS'trickled'
p1491
I1
sS'politics'
p1492
I1
sS'crease'
p1493
I1
sS'hospitals'
p1494
I2
sS'film'
p1495
I27
sS'again'
p1496
I4
sS'onerous'
p1497
I1
sS'krug'
p1498
I1
sS'administered'
p1499
I1
sS'saturday'
p1500
I1
sS'5'
I4
sS'xmlish'
p1501
I1
sS'announcements'
p1502
I1
sS'you'
p1503
I53
sS'fours'
p1504
I1
sS'through-the-web'
p1505
I1
sS'poor'
p1506
I2
sS'requested'
p1507
I1
sS'congress'
p1508
I1
sS'separate'
p1509
I2
sS'students'
p1510
I1
sS'refunded'
p1511
I1
sS'dave'
p1512
I1
sS'includes'
p1513
I1
sS'gifts'
p1514
I1
sS'oracle'
p1515
I1
sS'important'
p1516
I2
sS'bullets'
p1517
I1
sS'enamul'
p1518
I1
sS'fresh'
p1519
I1
sS'included'
p1520
I1
sS'building'
p1521
I5
sS'calls'
p1522
I3
sS'tricks'
p1523
I1
sS'$35'
p1524
I1
sS'having'
p1525
I10
sS'requisition'
p1526
I1
sS'mass'
p1527
I1
sS'procedure'
p1528
I1
sS'directory'
p1529
I2
sS'resolution'
p1530
I2
sS'cleaning'
p1531
I1
sS'external'
p1532
I3
sS'demo'
p1533
I1
sS'represent'
p1534
I2
sS'outlining'
p1535
I1
sS'consider'
p1536
I2
sS'ali'
p1537
I2
sS'caused'
p1538
I1
sS'lack'
p1539
I1
sS'fingertips'
p1540
I1
sS'month'
p1541
I3
sS'founded'
p1542
I1
sS'concept'
p1543
I1
sS'deadline'
p1544
I1
sS'talks'
p1545
I5
sS'follow'
p1546
I1
sS'reluctant'
p1547
I1
sS'thursday'
p1548
I2
sS'to'
p1549
I278
sS'program'
p1550
I2
sS'wants'
p1551
I3
sS'dressing'
p1552
I2
sS'health'
p1553
I3
sS'enjoying'
p1554
I1
sS'homepage'
p1555
I2
sS'pledges'
p1556
I4
sS'disarm'
p1557
I1
sS'activities'
p1558
I1
sS'woman'
p1559
I2
sS'returned'
p1560
I1
sS'straightforward'
p1561
I2
sS'sitting'
p1562
I1
sS'very'
p1563
I10
sS'rogue'
p1564
I1
sS'fan'
p1565
I1
sS"won't"
p1566
I2
sS'decide'
p1567
I1
sS'fall'
p1568
I1
sS'sony'
p1569
I1
sS'difference'
p1570
I1
sS'ceding'
p1571
I1
sS'steve'
p1572
I2
sS'17th'
p1573
I1
sS'list'
p1574
I4
sS'grandfather'
p1575
I1
sS'large'
p1576
I1
sS'saudi'
p1577
I1
sS'small'
p1578
I2
sS'anal'
p1579
I1
sS'metafilter'
p1580
I1
sS'20th'
p1581
I2
sS'programme'
p1582
I9
sS"i'll"
p1583
I5
sS'idiots'
p1584
I1
sS'ten'
p1585
I1
sS'194'
p1586
I1
sS'penalties'
p1587
I1
sS'built-in'
p1588
I2
sS'past'
p1589
I3
sS'19'
p1590
I1
sS'negotiator'
p1591
I2
sS'titles'
p1592
I1
sS'design'
p1593
I8
sS'scarily'
p1594
I1
sS'further'
p1595
I2
sS'what'
p1596
I27
sS'sun'
p1597
I2
sS'\x93governments'
p1598
I1
sS'version'
p1599
I4
sS'nurse'
p1600
I1
sS'public'
p1601
I1
sS'multinational'
p1602
I1
sS'full'
p1603
I2
sS'iran'
p1604
I9
sS'feedreader'
p1605
I1
sS'hayek'
p1606
I1
sS'modify'
p1607
I1
sS'21st'
p1608
I8
sS'behaviour'
p1609
I1
sS'scum'
p1610
I1
sS'operating'
p1611
I1
sS'databases'
p1612
I2
sS'directions'
p1613
I1
sS'eventful'
p1614
I1
sS'iraq'
p1615
I24
sS'respect'
p1616
I1
sS'publishes'
p1617
I1
sS'\xe0'
I1
sS'search'
p1618
I11
sS'surpress'
p1619
I1
sS'ahead'
p1620
I1
sS'unconvinced'
p1621
I1
sS'inspired'
p1622
I1
sS'exceptionally'
p1623
I1
sS'reason'
p1624
I3
sS'experience'
p1625
I3
sS'fwc'
p1626
I1
sS'amount'
p1627
I2
sS'social'
p1628
I1
sS'action'
p1629
I2
sS'mentions'
p1630
I2
sS'smuggle'
p1631
I2
sS'via'
p1632
I1
sS'family'
p1633
I2
sS'requiring'
p1634
I1
sS'houses'
p1635
I1
sS'capital'
p1636
I1
sS'ask'
p1637
I1
sS'trained'
p1638
I2
sS'plone'
p1639
I2
sS'select'
p1640
I1
sS'intensive'
p1641
I1
sS'eye'
p1642
I1
sS'takes'
p1643
I2
sS'composure'
p1644
I1
sS'0'
I4
sS'non-'
p1645
I1
sS'two'
p1646
I15
sS'conceded'
p1647
I1
sS'6'
I2
sS'taken'
p1648
I1
sS'authorization'
p1649
I1
sS'more'
p1650
I26
sS'squid'
p1651
I4
sS'fellow'
p1652
I3
sS'knows'
p1653
I1
sS'company'
p1654
I11
sS'mozilla'
p1655
I1
sS'constructs'
p1656
I1
sS'videoclip'
p1657
I1
sS'surprisingly'
p1658
I2
sS'basically'
p1659
I2
sS'particular'
p1660
I4
sS'town'
p1661
I1
sS'none'
p1662
I1
sS'vladimir'
p1663
I1
sS'science'
p1664
I4
sS'pocket'
p1665
I2
sS'coalition'
p1666
I2
sS'\x93breakthroughs\x94'
p1667
I1
sS'remain'
p1668
I4
sS'nine'
p1669
I2
sS'waiters'
p1670
I1
sS'learn'
p1671
I1
sS'history'
p1672
I1
sS'beautiful'
p1673
I1
sS'challenging'
p1674
I1
sS'final'
p1675
I2
sS'server-side-include'
p1676
I1
sS'share'
p1677
I2
sS'accept'
p1678
I2
sS'states'
p1679
I5
sS'ironic'
p1680
I1
sS'minimum'
p1681
I1
sS'numbers'
p1682
I1
sS'sense'
p1683
I2
sS'dress'
p1684
I2
sS'soure'
p1685
I1
sS'information'
p1686
I5
sS'needs'
p1687
I3
sS'court'
p1688
I1
sS'recursive'
p1689
I1
sS'rather'
p1690
I2
sS'clarke'
p1691
I1
sS'utilize'
p1692
I1
sS'ratified'
p1693
I2
sS"conference's"
p1694
I1
sS'bit'
p1695
I2
sS'five-wicket'
p1696
I1
sS'explains'
p1697
I1
sS'half-century'
p1698
I1
sS'plant'
p1699
I2
sS'tried'
p1700
I6
sS'suppose'
p1701
I2
sS'advice'
p1702
I1
sS'1275'
p1703
I1
sS'upload'
p1704
I1
sS'umpires'
p1705
I1
sS'work-email'
p1706
I1
sS'revolutionizing'
p1707
I1
sS'blood'
p1708
I3
sS'coming'
p1709
I1
sS'queries'
p1710
I5
sS'lanka'
p1711
I1
sS'response'
p1712
I1
sS'a'
I278
sS'shortcomings'
p1713
I1
sS'short'
p1714
I3
sS'footer'
p1715
I1
sS'crippling'
p1716
I1
sS'responsibility'
p1717
I2
sS'banks'
p1718
I1
sS'dream'
p1719
I1
sS"charlie's"
p1720
I1
sS'sales@zope'
p1721
I1
sS"that's"
p1722
I2
sS'help'
p1723
I5
sS'corporation'
p1724
I5
sS"don't"
p1725
I12
sS'hierarchy'
p1726
I2
sS'developed'
p1727
I2
sS'flowers'
p1728
I1
sS'urine'
p1729
I1
sS'soon'
p1730
I2
sS'held'
p1731
I1
sS'attitude'
p1732
I1
sS'paper'
p1733
I1
sS'through'
p1734
I5
sS'signs'
p1735
I1
sS'installer'
p1736
I1
sS'alrite'
p1737
I1
sS'its'
p1738
I22
sS'developer'
p1739
I3
sS'25'
p1740
I3
sS'26'
p1741
I1
sS'20'
p1742
I3
sS'22'
p1743
I2
sS'23'
p1744
I3
sS'reluctance'
p1745
I1
sS'handheld'
p1746
I1
sS'ricardo'
p1747
I4
sS"lwn's"
p1748
I1
sS'file-based'
p1749
I1
sS'reuters'
p1750
I1
sS'systems'
p1751
I4
sS'cool'
p1752
I1
sS'might'
p1753
I2
sS'ally'
p1754
I1
sS'bushehr'
p1755
I1
sS'someone'
p1756
I2
sS'return'
p1757
I1
sS'ceo'
p1758
I1
sS'framework'
p1759
I2
sS'vomit'
p1760
I1
sS'sweeping'
p1761
I2
sS'iranians'
p1762
I1
sS'sucked'
p1763
I1
sS'easily'
p1764
I3
sS'always'
p1765
I4
sS'v\xe4ttern'
p1766
I1
sS'powell'
p1767
I3
sS'capability'
p1768
I1
sS'courses'
p1769
I1
sS'2m'
p1770
I1
sS"elbaradei's"
p1771
I1
sS'notes'
p1772
I1
sS"isn't"
p1773
I1
sS'allies'
p1774
I1
sS'week'
p1775
I7
sS'everyone'
p1776
I1
sS'england'
p1777
I10
sS'pirates'
p1778
I1
sS'generation'
p1779
I1
sS'house'
p1780
I5
sS'energy'
p1781
I1
sS'hard'
p1782
I7
sS'reduce'
p1783
I2
sS'idea'
p1784
I7
sS'him'
p1785
I4
sS'oil'
p1786
I4
sS'expect'
p1787
I3
sS'inspections'
p1788
I1
sS'beyond'
p1789
I2
sS'event'
p1790
I3
sS'britain'
p1791
I4
sS'really'
p1792
I10
sS'alcohol'
p1793
I2
sS'blacks'
p1794
I1
sS'since'
p1795
I5
sS'kensington'
p1796
I1
sS'publish'
p1797
I2
sS'research'
p1798
I2
sS'dominated'
p1799
I1
sS'7'
I1
sS'print'
p1800
I2
sS'offline'
p1801
I1
sS'induced'
p1802
I1
sS'issue'
p1803
I2
sS'occurs'
p1804
I1
sS'fled'
p1805
I1
sS'\x93peace'
p1806
I2
sS'asp'
p1807
I1
sS'difficulty'
p1808
I1
sS'experimenting'
p1809
I1
sS'proxy'
p1810
I1
sS'members'
p1811
I2
sS'rikki'
p1812
I1
sS'put'
p1813
I5
sS'reparations'
p1814
I1
sS'automation'
p1815
I1
sS'retained'
p1816
I1
sS'english'
p1817
I1
sS'just'
p1818
I16
sS'finland'
p1819
I1
sS'terrible'
p1820
I1
sS'didn\x92t'
p1821
I2
sS'rafique'
p1822
I2
sS'conducted'
p1823
I1
sS'kung'
p1824
I1
sS'w'
I1
sS'taha'
p1825
I1
sS'castle'
p1826
I1
sS'batsmen'
p1827
I1
sS'feed'
p1828
I4
sS'major'
p1829
I1
sS'mr'
p1830
I5
sS'feel'
p1831
I1
sS'number'
p1832
I3
sS'feet'
p1833
I1
sS'done'
p1834
I4
sS'spiritually'
p1835
I1
sS'fees'
p1836
I1
sS'cups'
p1837
I1
sS'visions'
p1838
I1
sS"you'd"
p1839
I2
sS'story'
p1840
I6
sS'heads'
p1841
I1
sS'script'
p1842
I3
sS'introduction'
p1843
I1
sS'together'
p1844
I1
sS'bangladesh\x92s'
p1845
I1
sS'threatening'
p1846
I2
sS'least'
p1847
I4
sS'wonderful'
p1848
I1
sS'passed'
p1849
I3
sS'fought'
p1850
I1
sS'hundred'
p1851
I1
sS'store'
p1852
I1
sS'headache'
p1853
I1
sS'selling'
p1854
I2
sS'statement'
p1855
I1
sS'relationship'
p1856
I1
sS'behind'
p1857
I3
sS'bowel'
p1858
I1
sS'park'
p1859
I1
sS'immediate'
p1860
I1
sS'part'
p1861
I2
sS'authors'
p1862
I2
sS'$4'
p1863
I1
sS'believe'
p1864
I2
sS'four-day'
p1865
I1
sS'$1'
p1866
I1
sS'king'
p1867
I2
sS'kind'
p1868
I2
sS'iranian'
p1869
I3
sS'state-owned'
p1870
I1
sS'double'
p1871
I1
sS"japan's"
p1872
I2
sS'dispensed'
p1873
I1
sS'scandinavian'
p1874
I1
sS'recording'
p1875
I1
sS'nevertheless'
p1876
I1
sS'determined'
p1877
I1
sS'architect'
p1878
I1
sS'supposed'
p1879
I1
sS'iraqis'
p1880
I1
sS'next-generation'
p1881
I1
sS'treated'
p1882
I1
sS'colour'
p1883
I3
sS'displays'
p1884
I1
sS'alongside'
p1885
I1
sS'crazy'
p1886
I1
sS'room'
p1887
I4
sS'alike'
p1888
I1
sS'unafraid'
p1889
I1
sS'left-hander'
p1890
I1
sS'aged'
p1891
I4
sS'orders'
p1892
I2
sS'cobras'
p1893
I1
sS'built'
p1894
I3
sS'depending'
p1895
I1
sS'transactional'
p1896
I1
sS'trapped'
p1897
I1
sS'majority'
p1898
I1
sS'without'
p1899
I6
sS'build'
p1900
I5
sS'donor'
p1901
I1
sS'folders'
p1902
I1
sS'play'
p1903
I4
sS'towards'
p1904
I4
sS'770'
p1905
I1
sS'reckon'
p1906
I1
sS"user's"
p1907
I1
sS'filesystem'
p1908
I2
sS'reach'
p1909
I2
sS'most'
p1910
I15
sS'shake-up'
p1911
I1
sS'plan'
p1912
I1
sS'significant'
p1913
I1
sS'70'
p1914
I2
sS'services'
p1915
I5
sS'hands-on'
p1916
I1
sS'13-year-olds'
p1917
I1
sS'give'
p1918
I3
sS'mobile'
p1919
I1
sS'convened'
p1920
I1
sS'clear'
p1921
I2
sS'concepts'
p1922
I1
sS'artistic'
p1923
I1
sS'clean'
p1924
I2
sS'caching'
p1925
I2
sS'realised'
p1926
I1
sS'lying'
p1927
I1
sS'surrey'
p1928
I1
sS'\xa310m'
p1929
I1
sS'vaunted'
p1930
I1
sS'particularly'
p1931
I1
sS'rebels'
p1932
I3
sS'brush-like'
p1933
I1
sS'celeron'
p1934
I1
sS'outdoor'
p1935
I1
sS'hyped'
p1936
I1
sS'co-operative'
p1937
I1
sS'multilateral'
p1938
I1
sS'find'
p1939
I5
sS'occupation'
p1940
I1
sS're-grouped'
p1941
I1
sS'$5'
p1942
I1
sS'causality'
p1943
I1
sS'parameters'
p1944
I1
sS'justice'
p1945
I1
sS'nervous'
p1946
I1
sS'ruin'
p1947
I1
sS'19th'
p1948
I1
sS'viagra'
p1949
I2
sS'pretty'
p1950
I5
sS'encouraged'
p1951
I1
sS'8'
I1
sS'relieves'
p1952
I1
sS'hotmail'
p1953
I1
sS'hit'
p1954
I1
sS'goes'
p1955
I1
sS'meanwhile'
p1956
I1
sS'secular'
p1957
I1
sS'express'
p1958
I1
sS'feels'
p1959
I2
sS'synchronization'
p1960
I1
sS'actions'
p1961
I1
sS'reply'
p1962
I1
sS'during'
p1963
I8
sS'emails'
p1964
I1
sS'externaleditor'
p1965
I1
sS'sources'
p1966
I3
sS'remove'
p1967
I1
sS'vial'
p1968
I1
sS'clocks'
p1969
I1
sS'common'
p1970
I7
sS'wrote'
p1971
I1
sS'toasters'
p1972
I1
sS'bars'
p1973
I1
sS'set'
p1974
I10
sS'stump'
p1975
I1
sS'september'
p1976
I1
sS'sep'
p1977
I6
sS'opposing'
p1978
I1
sS'scenes'
p1979
I4
sS'collectively'
p1980
I1
sS'see'
p1981
I22
sS'defense'
p1982
I2
sS'bare'
p1983
I1
sS'are'
p1984
I46
sS'close'
p1985
I4
sS'11th'
p1986
I1
sS'declined'
p1987
I1
sS'hibiscus'
p1988
I1
sS'learnt'
p1989
I2
sS'expert'
p1990
I3
sS'movie'
p1991
I1
sS'user'
p1992
I3
sS'currently'
p1993
I1
sS'please'
p1994
I5
sS'case'
p1995
I3
sS'various'
p1996
I1
sS'omit-tag'
p1997
I1
sS'familys'
p1998
I1
sS'donate'
p1999
I1
sS'conditions'
p2000
I3
sS'15th'
p2001
I4
sS'risks'
p2002
I1
sS'available'
p2003
I2
sS'korea'
p2004
I2
sS'recently'
p2005
I1
sS'creating'
p2006
I1
sS'missing'
p2007
I1
sS'initially'
p2008
I1
sS'pisses'
p2009
I1
sS'interfaces'
p2010
I2
sS'stairways'
p2011
I1
sS'outfit'
p2012
I1
sS'selectively'
p2013
I1
sS'interface'
p2014
I6
sS'\x93axis'
p2015
I1
sS'both'
p2016
I14
sS'c'
I2
sS'feeling'
p2017
I1
sS'improved'
p2018
I1
sS'license'
p2019
I2
sS'restaurant'
p2020
I4
sS'influential'
p2021
I1
sS"wouldn't"
p2022
I2
sS'annual'
p2023
I1
sS'foreign'
p2024
I4
sS'sensitive'
p2025
I2
sS'connection'
p2026
I4
sS'forgotten'
p2027
I1
sS'pdf'
p2028
I1
sS'whole'
p2029
I3
sS'pda'
p2030
I1
sS'load'
p2031
I1
sS'liked'
p2032
I3
sS'consume'
p2033
I1
sS'jeff'
p2034
I1
sS'positivly'
p2035
I1
sS'sweet'
p2036
I1
sS'loan'
p2037
I2
sS'sweep'
p2038
I1
sS'community'
p2039
I1
sS'header'
p2040
I1
sS'simply'
p2041
I3
sS'adaptation'
p2042
I2
sS'village'
p2043
I2
sS'safer'
p2044
I1
sS'java'
p2045
I1
sS'publishing'
p2046
I1
sS'create'
p2047
I5
sS'acceptance'
p2048
I1
sS"department's"
p2049
I1
sS'screened'
p2050
I1
sS'hitting'
p2051
I1
sS'suburbs'
p2052
I1
sS'reduction'
p2053
I1
sS'pa'
p2054
I1
sS'change'
p2055
I1
sS'maintenance'
p2056
I1
sS'"semco'
p2057
I1
sS'collected'
p2058
I1
sS'meeting'
p2059
I3
sS'woke'
p2060
I2
sS'blob'
p2061
I2
sS'dialogue'
p2062
I1
sS'modern'
p2063
I1
sS'16-year-old'
p2064
I1
sS'priced'
p2065
I1
sS'fund'
p2066
I2
sS'www\x94'
p2067
I1
sS'lives'
p2068
I1
sS'specifically'
p2069
I1
sS'accorning'
p2070
I1
sS'imap'
p2071
I1
sS'webfolders'
p2072
I1
sS'pact'
p2073
I1
sS'z4i'
p2074
I5
sS'look'
p2075
I7
sS'talking'
p2076
I1
sS'bill'
p2077
I5
sS'elections'
p2078
I1
sS'receive'
p2079
I2
sS'while'
p2080
I6
sS'replaced'
p2081
I1
sS'kick'
p2082
I1
sS'error'
p2083
I2
sS'fun'
p2084
I4
sS'animated'
p2085
I2
sS'guide'
p2086
I1
sS'engineers'
p2087
I1
sS'swim'
p2088
I1
sS'century'
p2089
I2
sS'vol'
p2090
I1
sS'calculator'
p2091
I1
sS'danes'
p2092
I1
sS'ducks'
p2093
I1
sS'bellowed'
p2094
I1
sS'itself'
p2095
I3
sS'terminator'
p2096
I2
sS'alone'
p2097
I1
sS'chase'
p2098
I1
sS'funny'
p2099
I6
sS'grant'
p2100
I2
sS'butcher'
p2101
I1
sS'rules'
p2102
I2
sS'edit-lock'
p2103
I1
sS'deletion'
p2104
I1
sS'grand'
p2105
I1
sS'modification'
p2106
I1
sS'resulting'
p2107
I1
sS'advise'
p2108
I1
sS'conflict'
p2109
I3
sS'development'
p2110
I6
sS'sell'
p2111
I1
sS'used'
p2112
I10
sS'temporary'
p2113
I2
sS'affairs'
p2114
I2
sS'bonus'
p2115
I1
sS'comprehensive'
p2116
I4
sS'gallery'
p2117
I1
sS'yesterday'
p2118
I4
sS'desks'
p2119
I1
sS'moment'
p2120
I2
sS'000'
p2121
I6
sS'uses'
p2122
I3
sS'89%'
p2123
I1
sS'necessity'
p2124
I1
sS'robust'
p2125
I2
sS'climb'
p2126
I1
sS'recent'
p2127
I1
sS'oddest'
p2128
I1
sS'database'
p2129
I8
sS'spent'
p2130
I2
sS"country's"
p2131
I1
sS'concrete'
p2132
I1
sS'nordic'
p2133
I1
sS'withdraw'
p2134
I2
sS'paramedics'
p2135
I2
sS'organization'
p2136
I2
sS'signalled'
p2137
I1
sS'johan'
p2138
I1
sS'spend'
p2139
I2
sS'hastings'
p2140
I1
sS'ambassador'
p2141
I1
sS'window-dressing'
p2142
I1
sS'atomic'
p2143
I2
sS'questions'
p2144
I3
sS'mysql'
p2145
I1
sS'prince'
p2146
I1
sS'spinners'
p2147
I1
sS'discipline'
p2148
I1
sS'extracted'
p2149
I1
sS'disappointed'
p2150
I1
sS'workers'
p2151
I2
sS'organixation'
p2152
I1
sS'source'
p2153
I10
sS'causing'
p2154
I1
sS'rear'
p2155
I1
sS'administrative'
p2156
I1
sS'merely'
p2157
I1
sS'surprised'
p2158
I1
sS'applauded'
p2159
I1
sS'customers'
p2160
I2
sS'australia'
p2161
I1
sS'victims'
p2162
I1
sS'format'
p2163
I1
sS'big'
p2164
I9
sS'couple'
p2165
I5
sS'judgement'
p2166
I1
sS'matters'
p2167
I2
sS'game'
p2168
I1
sS'state\x97have'
p2169
I1
sS'wirelessly'
p2170
I1
sS'thurman'
p2171
I1
sS'sorting'
p2172
I1
sS'stool-sample'
p2173
I1
sS'd'
I1
sS'admittedly'
p2174
I1
sS'nasser'
p2175
I1
sS'separately'
p2176
I2
sS'continue'
p2177
I3
sS'popular'
p2178
I1
sS'left-hand'
p2179
I1
sS'mathematical'
p2180
I1
sS'sketch'
p2181
I1
sS'google'
p2182
I8
sS'methods'
p2183
I4
sS'senate'
p2184
I3
sS'inching'
p2185
I1
sS'some'
p2186
I31
sS'back'
p2187
I14
sS'metres'
p2188
I1
sS'delegation'
p2189
I4
sS'martial'
p2190
I1
sS'added'
p2191
I2
sS'examples'
p2192
I1
sS'28th'
p2193
I1
sS'mirror'
p2194
I1
sS'sprint'
p2195
I3
sS'oddly'
p2196
I1
sS'delivered'
p2197
I1
sS'absolutely'
p2198
I2
sS'though'
p2199
I3
sS'integration'
p2200
I4
sS'per'
p2201
I2
sS'competitions'
p2202
I2
sS'programmers'
p2203
I2
sS'be'
p2204
I63
sS'gettasks'
p2205
I1
sS'measures'
p2206
I1
sS'run'
p2207
I6
sS'300'
p2208
I2
sS'conferencelike'
p2209
I1
sS'it\x92s'
p2210
I2
sS'enthusiasticly'
p2211
I1
sS'continuing'
p2212
I1
sS'agreement'
p2213
I10
sS'feelings'
p2214
I1
sS'respite'
p2215
I1
sS'become'
p2216
I3
sS'by'
p2217
I48
sS'analysing'
p2218
I1
sS'anything'
p2219
I3
sS'exaggerated'
p2220
I1
sS'escalators'
p2221
I1
sS'deserves'
p2222
I1
sS'messaging'
p2223
I1
sS'block'
p2224
I2
sS'surprises'
p2225
I1
sS'hometown'
p2226
I1
sS'into'
p2227
I12
sS'within'
p2228
I6
sS'servers'
p2229
I4
sS'nothing'
p2230
I4
sS'ayatollah'
p2231
I1
sS'france'
p2232
I4
sS'pentagon'
p2233
I2
sS"washington's"
p2234
I1
sS'impressed'
p2235
I1
sS'statistics'
p2236
I1
sS'bangladesh'
p2237
I6
sS'spam'
p2238
I6
sS'spending'
p2239
I2
sS'question'
p2240
I2
sS'long'
p2241
I5
sS'occupy'
p2242
I1
sS'vendors'
p2243
I1
sS"we're"
p2244
I1
sS'madrid'
p2245
I3
sS'forward'
p2246
I1
sS'vienna'
p2247
I2
sS'files'
p2248
I4
sS'mountains'
p2249
I1
sS'himself'
p2250
I2
sS'troops\x97but'
p2251
I1
sS'registered'
p2252
I3
sS'tally'
p2253
I1
sS'slump'
p2254
I1
sS'evil\x94'
p2255
I1
sS'khamenei'
p2256
I1
sS'boys'
p2257
I2
sS'link'
p2258
I3
sS'competition'
p2259
I1
sS'hopes'
p2260
I1
sS'line'
p2261
I1
sS'junior'
p2262
I1
sS'magnificant'
p2263
I1
sS'sounds'
p2264
I1
sS'up'
p2265
I26
sS'us'
p2266
I9
sS'international'
p2267
I3
sS'windows'
p2268
I2
sS'un'
p2269
I6
sS'uk'
p2270
I2
sS'erection-enhancing'
p2271
I1
sS'beemed'
p2272
I1
sS'similar'
p2273
I2
sS'called'
p2274
I9
sS'worthwhile'
p2275
I1
sS'defined'
p2276
I1
sS'ffirth'
p2277
I1
sS'chan'
p2278
I1
sS'single'
p2279
I2
sS'warning'
p2280
I1
sS'evening'
p2281
I1
sS'chat'
p2282
I2
sS"coalition's"
p2283
I1
sS'graham'
p2284
I1
sS'\x93a'
p2285
I1
sS'traditional'
p2286
I1
sS'peter'
p2287
I1
sS'berkshire'
p2288
I1
sS'amounts'
p2289
I1
sS'peace'
p2290
I6
sS'fears'
p2291
I1
sS'matching'
p2292
I1
sS'application'
p2293
I12
sS'nap'
p2294
I1
sS'functionality'
p2295
I2
sS'department'
p2296
I3
sS'potential'
p2297
I2
sS'mock'
p2298
I1
sS'$900m'
p2299
I1
sS'slashdotted'
p2300
I1
sS'users'
p2301
I5
sS'reportedly'
p2302
I1
sS'scandals'
p2303
I2
sS'heir'
p2304
I1
sS'problems'
p2305
I2
sS'prepared'
p2306
I2
sS'nuba'
p2307
I1
sS'evan'
p2308
I1
sS'allowing'
p2309
I6
sS'depicting'
p2310
I1
sS'swede'
p2311
I1
sS'sides'
p2312
I5
sS'issuetrackerproduct'
p2313
I3
sS'ago'
p2314
I1
sS'e'
I6
sS'algorithm'
p2315
I1
sS'age'
p2316
I1
sS'required'
p2317
I2
sS'\x93should'
p2318
I1
sS'walked'
p2319
I1
sS'utilised'
p2320
I1
sS'2002'
p2321
I1
sS'2003'
p2322
I34
sS'2000'
p2323
I1
sS'summit'
p2324
I2
sS'2007'
p2325
I1
sS'2004'
p2326
I1
sS'far'
p2327
I5
sS"she's"
p2328
I3
sS'hello'
p2329
I2
sS'once'
p2330
I2
sS'code'
p2331
I9
sS'results'
p2332
I6
sS'highways'
p2333
I1
sS'dispel'
p2334
I1
sS'legal'
p2335
I1
sS'go'
p2336
I11
sS'query'
p2337
I3
sS'seemed'
p2338
I1
sS'documentary'
p2339
I2
sS'arabia\x92s'
p2340
I1
sS'we\x92ll'
p2341
I1
sS'concerned'
p2342
I2
sS'send'
p2343
I4
sS'power-sharing'
p2344
I1
sS'languages'
p2345
I1
sS'excluded'
p2346
I2
sS'discretion'
p2347
I1
sS'include'
p2348
I3
sS'gb'
p2349
I1
sS'resources'
p2350
I1
sS'uploaded'
p2351
I1
sS'outside'
p2352
I2
sS'telling'
p2353
I1
sS'syntax'
p2354
I1
sS'superfast'
p2355
I1
sS'stiff'
p2356
I1
sS'button'
p2357
I1
sS'michael'
p2358
I1
sS'day\x92s'
p2359
I1
sS'try'
p2360
I4
sS'threat'
p2361
I1
sS'car'
p2362
I4
sS'inspection'
p2363
I2
sS"government's"
p2364
I2
sS'pledge'
p2365
I1
sS'com/rss'
p2366
I2
sS'video'
p2367
I1
sS'uncomfortable'
p2368
I1
sS'earth'
p2369
I1
sS'download'
p2370
I3
sS'dynamics'
p2371
I2
sS'odd'
p2372
I1
sS'click'
p2373
I1
sS'index'
p2374
I1
sS'formats'
p2375
I1
sS'power'
p2376
I5
sS'concessions'
p2377
I1
sS'pyredir'
p2378
I1
sS'access'
p2379
I12
sS'waiting'
p2380
I2
sS'attire'
p2381
I1
sS'values'
p2382
I2
sS'aligning'
p2383
I2
sS'scope-constrained'
p2384
I1
sS'afghanistan\x97remains'
p2385
I1
sS'degree'
p2386
I1
sS'respectively'
p2387
I1
sS'commercial'
p2388
I1
sS'delivering'
p2389
I1
sS'radicals'
p2390
I1
sS'objects'
p2391
I18
sS'let'
p2392
I6
sS'separation'
p2393
I1
sS'others'
p2394
I2
sS'squirming'
p2395
I1
sS'extreme'
p2396
I1
sS'great'
p2397
I13
sS'northern'
p2398
I3
sS'broken'
p2399
I3
sS'noisily'
p2400
I1
sS'involved'
p2401
I1
sS'30'
p2402
I1
sS'35'
p2403
I1
sS'leaving'
p2404
I1
sS'products'
p2405
I1
sS'oversees'
p2406
I1
sS'california'
p2407
I1
sS'implement'
p2408
I1
sS'makes'
p2409
I9
sS'writes'
p2410
I2
sS'involves'
p2411
I1
sS'named'
p2412
I3
sS'vips'
p2413
I1
sS'shake'
p2414
I1
sS'manage'
p2415
I2
sS'portals'
p2416
I1
sS'private'
p2417
I3
sS'austria'
p2418
I1
sS'names'
p2419
I1
sS'festivals'
p2420
I1
sS'tools'
p2421
I4
sS'manipulate'
p2422
I1
sS'standing'
p2423
I1
sS'confidence'
p2424
I2
sS'cheered'
p2425
I1
sS'from'
p2426
I67
sS'usa'
p2427
I2
sS'&'
I2
sS'illegal'
p2428
I1
sS'ministers'
p2429
I1
sS'next'
p2430
I4
sS'few'
p2431
I8
sS'examination'
p2432
I2
sS'timetable'
p2433
I1
sS'themselves'
p2434
I1
sS'consecutive'
p2435
I1
sS'sceptics'
p2436
I2
sS'screening'
p2437
I7
sS'sort'
p2438
I1
sS'started'
p2439
I3
sS'tennis'
p2440
I1
sS'benchmark'
p2441
I1
sS'debain'
p2442
I1
sS'train'
p2443
I3
sS'sub-continent\x92s'
p2444
I1
sS'baby'
p2445
I1
sS'departure'
p2446
I1
sS'appointed'
p2447
I1
sS'women'
p2448
I8
sS'customer'
p2449
I1
sS'account'
p2450
I1
sS'balls'
p2451
I2
sS'sanctions'
p2452
I2
sS'this'
p2453
I107
sS'i'
I113
sS'ride'
p2454
I3
sS'getting'
p2455
I4
sS'insists'
p2456
I2
sS'jailed'
p2457
I1
sS'anywhere'
p2458
I2
sS'crossed'
p2459
I1
sS'smear'
p2460
I3
sS'meet'
p2461
I1
sS'control'
p2462
I7
sS'tarantino'
p2463
I1
sS'policing'
p2464
I1
sS'sri'
p2465
I1
sS'patrol'
p2466
I1
sS'process'
p2467
I2
sS'$350'
p2468
I1
sS'purposes'
p2469
I1
sS'pieces'
p2470
I1
sS'high'
p2471
I5
sS'sought'
p2472
I1
sS'reserves'
p2473
I1
sS'something'
p2474
I6
sS'tab'
p2475
I1
sS'tal'
p2476
I3
sS'standard'
p2477
I2
sS'expandable'
p2478
I1
sS'united'
p2479
I5
sS'sit'
p2480
I3
sS'230'
p2481
I1
sS'six'
p2482
I3
sS'inaugural'
p2483
I2
sS'lunchbox'
p2484
I1
sS'located'
p2485
I1
sS'extended'
p2486
I1
sS'best-of-breed'
p2487
I1
sS'forest'
p2488
I1
sS'instead'
p2489
I10
sS'struggled'
p2490
I1
sS'hurdles'
p2491
I1
sS'blocks'
p2492
I1
sS'watch'
p2493
I1
sS'6mb'
p2494
I1
sS'collection'
p2495
I1
sS'halted'
p2496
I2
sS'fart'
p2497
I1
sS'discomfort'
p2498
I1
sS'spelling'
p2499
I2
sS'liquid-'
p2500
I1
sS'pop3'
p2501
I1
sS'drop'
p2502
I2
sS'22nd'
p2503
I1
sS'light'
p2504
I2
sS'many'
p2505
I17
sS'countries\x92'
p2506
I2
sS'provisional'
p2507
I1
sS'object-oriented'
p2508
I4
sS'chief'
p2509
I2
sS'allow'
p2510
I4
sS'american'
p2511
I5
sS'furnish'
p2512
I1
sS'untimely'
p2513
I1
sS'holds'
p2514
I1
sS'creation'
p2515
I1
sS'premature'
p2516
I1
sS'time\x94'
p2517
I1
sS'move'
p2518
I2
sS'zcatalog'
p2519
I1
sS'interpreted'
p2520
I1
sS'spatula'
p2521
I2
sS'131'
p2522
I1
sS'including'
p2523
I2
sS'looks'
p2524
I1
sS'mentioned'
p2525
I1
sS'boosts'
p2526
I1
sS'bunch'
p2527
I1
sS'perfect'
p2528
I1
sS'1'
I6
sS'li'
p2529
I1
sS'mental'
p2530
I1
sS'hobby'
p2531
I1
sS'holiday'
p2532
I1
sS'ruined'
p2533
I1
sS'crash'
p2534
I1
sS'python'
p2535
I4
sS'washington'
p2536
I1
sS'material'
p2537
I1
sS'flash'
p2538
I2
sS'heavy-handed'
p2539
I1
sS'snake'
p2540
I1
sS'understood'
p2541
I1
sS'hands'
p2542
I1
sS'front'
p2543
I2
sS'rotation'
p2544
I1
sS'cage'
p2545
I3
sS'transparent'
p2546
I1
sS'february'
p2547
I1
sS'pre-war'
p2548
I1
sS'mastery'
p2549
I1
sS'warned'
p2550
I1
sS'university'
p2551
I2
sS'sniffing'
p2552
I1
sS'slide'
p2553
I1
sS'abyei\x97which'
p2554
I1
sS'truth'
p2555
I1
sS'batch'
p2556
I1
sS'ireland\x92s'
p2557
I2
sS'|'
I1
sS'experienced'
p2558
I1
sS'warner'
p2559
I1
sS'imbibe'
p2560
I1
sS'705'
p2561
I1
sS'chunk'
p2562
I1
sS'700'
p2563
I1
sS'product'
p2564
I2
sS'cockey'
p2565
I1
sS'frequency'
p2566
I1
sS'static'
p2567
I2
sS'measure'
p2568
I2
sS'our'
p2569
I10
sS'steadies'
p2570
I1
sS'special'
p2571
I1
sS'out'
p2572
I21
sS'fundamentally'
p2573
I1
sS'confess'
p2574
I1
sS'day'
p2575
I12
sS'lecture'
p2576
I1
sS'vaughan'
p2577
I1
sS'supports'
p2578
I1
sS'integrated'
p2579
I3
sS'announced'
p2580
I3
sS'cartoons'
p2581
I1
sS'arrested'
p2582
I2
sS'high-performance'
p2583
I1
sS'workflow'
p2584
I2
sS'fishing-luck'
p2585
I1
sS'undo'
p2586
I2
sS'completely'
p2587
I2
sS'york'
p2588
I2
sS'steering'
p2589
I1
sS'organic'
p2590
I1
sS'g'
I3
sS'islamic'
p2591
I2
sS'chittagong'
p2592
I1
sS'rushed'
p2593
I1
sS'misstaken'
p2594
I1
sS'times'
p2595
I9
sS'keen'
p2596
I1
sS'country\x92s'
p2597
I1
sS'outlandish'
p2598
I1
sS'hence'
p2599
I1
sS'biting'
p2600
I1
sS'retail'
p2601
I1
sS'south'
p2602
I4
sS'plainly'
p2603
I1
sS"eu's"
p2604
I2
sS'touring'
p2605
I1
sS'1989'
p2606
I1
sS'quality'
p2607
I2
sS'hiding'
p2608
I1
sS'prank'
p2609
I2
sS"doesn't"
p2610
I4
sS'management'
p2611
I14
sS'sadly'
p2612
I1
sS'start'
p2613
I3
sS'ordering'
p2614
I1
sS'data'
p2615
I15
sS'explorer-like'
p2616
I1
sS'system'
p2617
I7
sS'relations'
p2618
I1
sS'jong-il'
p2619
I1
sS'attack'
p2620
I1
sS'tourists'
p2621
I2
sS'interests'
p2622
I2
sS'buttonwood'
p2623
I2
sS'doomed'
p2624
I1
sS'exactly'
p2625
I6
sS'\x93we'
p2626
I1
sS'innovate'
p2627
I1
sS'//simon'
p2628
I1
sS'completes'
p2629
I1
sS'picked'
p2630
I2
sS'rss'
p2631
I3
sS'loved'
p2632
I1
sS'natuarl'
p2633
I1
sS'minister'
p2634
I1
sS'culture'
p2635
I1
sS'swedes'
p2636
I1
sS'patients'
p2637
I1
sS'ipaq'
p2638
I1
sS'disband'
p2639
I1
sS"powell's"
p2640
I2
sS'providing'
p2641
I1
sS'stubbins'
p2642
I1
sS'participation'
p2643
I1
sS'plans'
p2644
I1
sS'false'
p2645
I1
sS'clip'
p2646
I2
sS'tabs'
p2647
I1
sS'comfortable'
p2648
I1
sS'tonight'
p2649
I2
sS'discussions'
p2650
I1
sS'imdb'
p2651
I4
sS'have'
p2652
I65
sS'need'
p2653
I6
sS'facing'
p2654
I1
sS'turn'
p2655
I3
sS'apparently'
p2656
I2
sS'clearly'
p2657
I1
sS'tale'
p2658
I1
sS'documents'
p2659
I6
sS'pupils'
p2660
I1
sS'agency'
p2661
I4
sS'reloaded'
p2662
I1
sS'mechanism'
p2663
I1
sS'contact'
p2664
I3
sS'concerns'
p2665
I1
sS'tactic'
p2666
I1
sS'funds'
p2667
I1
sS'battled'
p2668
I1
sS'persistence'
p2669
I2
sS'accuracy'
p2670
I1
sS'lecturer'
p2671
I2
sS'lectures'
p2672
I1
sS'challanging'
p2673
I1
sS'unless'
p2674
I3
sS'agenda'
p2675
I3
sS'peterbe'
p2676
I3
sS'who'
p2677
I13
sS'callable'
p2678
I1
sS'wicket'
p2679
I1
sS'eight'
p2680
I1
sS'fountains'
p2681
I1
sS'device'
p2682
I2
sS'why'
p2683
I5
sS'url'
p2684
I3
sS'thunderbird'
p2685
I1
sS'face'
p2686
I1
sS"you'll"
p2687
I3
sS'pictures'
p2688
I3
sS'maddeningly'
p2689
I1
sS'away'
p2690
I2
sS'fact'
p2691
I2
sS'impression'
p2692
I1
sS'malkovich'
p2693
I1
sS'agreed'
p2694
I3
sS'charles'
p2695
I1
sS'bring'
p2696
I1
sS'biker'
p2697
I1
sS'planning'
p2698
I1
sS'fumbling'
p2699
I1
sS'soldiers'
p2700
I1
sS'calculated/modelled'
p2701
I1
sS'economist'
p2702
I3
sS'staff'
p2703
I4
sS'promote'
p2704
I1
sS'based'
p2705
I8
sS'knowledge'
p2706
I1
sS'cache'
p2707
I2
sS'hopeful'
p2708
I1
sS'controls'
p2709
I1
sS'should'
p2710
I13
sS'unpalatable'
p2711
I1
sS'jam'
p2712
I2
sS'indeed'
p2713
I1
sS'fuel'
p2714
I1
sS'local'
p2715
I1
sS'secretaries'
p2716
I2
sS'hope'
p2717
I1
sS'regularly'
p2718
I1
sS'handle'
p2719
I2
sS'purchasing'
p2720
I1
sS'crumbling'
p2721
I1
sS'familiar'
p2722
I3
sS'diagnosing'
p2723
I1
sS'overall'
p2724
I1
sS'lucky'
p2725
I1
sS'120'
p2726
I1
sS'joint'
p2727
I1
sS'words'
p2728
I2
sS'probably'
p2729
I3
sS'areas'
p2730
I3
sS'following'
p2731
I5
sS"other's"
p2732
I1
sS'\x93which'
p2733
I1
sS'denmark'
p2734
I1
sS're-assure'
p2735
I1
sS'taxes'
p2736
I1
sS'stuff'
p2737
I1
sS'she'
p2738
I4
sS'contain'
p2739
I1
sS'fiord'
p2740
I1
sS'piss'
p2741
I1
sS'view'
p2742
I4
sS'europe'
p2743
I1
sS'temporarily'
p2744
I1
sS'frame'
p2745
I1
sS'pitch'
p2746
I2
sS'module'
p2747
I2
sS'edition'
p2748
I2
sS'computer'
p2749
I6
sS'closer'
p2750
I1
sS'wisp'
p2751
I1
sS'pattern'
p2752
I1
sS'illusory'
p2753
I1
sS'tend'
p2754
I1
sS'written'
p2755
I4
sS'tens'
p2756
I1
sS'progress'
p2757
I1
sS'neither'
p2758
I1
sS'email'
p2759
I8
sS'bought'
p2760
I1
sS'ends'
p2761
I1
sS'ability'
p2762
I2
sS'packaged'
p2763
I1
sS'agencies'
p2764
I1
sS'job'
p2765
I4
sS'rinsed'
p2766
I1
sS'spoil'
p2767
I1
sS'montmartre'
p2768
I1
sS'restrictions'
p2769
I1
sS'hits'
p2770
I1
sS'figured'
p2771
I1
sS'instant'
p2772
I1
sS'contemporaries'
p2773
I1
sS'invited'
p2774
I1
sS'deficits'
p2775
I1
sS'drug'
p2776
I1
sS'etc'
p2777
I2
sS'passing'
p2778
I2
sS'safely'
p2779
I1
sS'otherwise'
p2780
I3
sS'comment'
p2781
I2
sS'strongly'
p2782
I2
sS'compromising'
p2783
I1
sS'co'
p2784
I1
sS'dtml'
p2785
I23
sS'authorised'
p2786
I1
sS'tuesday'
p2787
I2
sS'wonder'
p2788
I1
sS'april'
p2789
I1
sS'walk'
p2790
I1
sS'subscribe'
p2791
I1
sS'laugh'
p2792
I3
sS'sequences'
p2793
I1
sS'table'
p2794
I3
sS'acres'
p2795
I1
sS'mailman'
p2796
I1
sS'rdbms'
p2797
I2
sS'second'
p2798
I2
sS'addition'
p2799
I1
sS"it's"
p2800
I20
sS'bbc'
p2801
I2
sS'copies'
p2802
I1
sS'cent'
p2803
I2
sS'20-64'
p2804
I1
sS'poured'
p2805
I1
sS'slashdot'
p2806
I1
sS'ah'
p2807
I1
sS'indicators'
p2808
I1
sS'copied'
p2809
I1
sS"it'd"
p2810
I1
sS'define'
p2811
I3
sS'controlled'
p2812
I1
sS'powerful'
p2813
I6
sS'slumping'
p2814
I1
sS'c#'
p2815
I1
sS'am'
p2816
I2
sS'al'
p2817
I1
sS'bulk'
p2818
I1
sS'finished'
p2819
I1
sS'shortfall'
p2820
I1
sS'suspension'
p2821
I2
sS'last'
p2822
I17
sS'cuts'
p2823
I1
sS'golf'
p2824
I1
sS'spain'
p2825
I1
sS'double-clickable'
p2826
I1
sS'divisions'
p2827
I1
sS'novel'
p2828
I1
sS'laser'
p2829
I1
sS'abandoned'
p2830
I1
sS'unlike'
p2831
I2
sS'harder'
p2832
I1
sS's-shaped'
p2833
I1
sS'will'
p2834
I38
sS'intranet'
p2835
I2
sS'venomous'
p2836
I2
sS'scene'
p2837
I1
sS'vb'
p2838
I1
sS'saleh'
p2839
I1
sS'salma'
p2840
I1
sS'almost'
p2841
I5
sS'non-proliferation'
p2842
I3
sS'delaying'
p2843
I1
sS'thus'
p2844
I2
sS'site'
p2845
I22
sS'helped'
p2846
I1
sS'threathened'
p2847
I1
sS'claimed'
p2848
I1
sS'discarded'
p2849
I1
sS'miracle'
p2850
I1
sS'portray'
p2851
I1
sS'enriching'
p2852
I2
sS'education'
p2853
I2
sS'perhaps'
p2854
I2
sS'began'
p2855
I2
sS'views'
p2856
I4
sS'administration'
p2857
I2
sS'guns'
p2858
I3
sS'terrorism'
p2859
I1
sS'gets'
p2860
I4
sS'privileged'
p2861
I1
sS'kungfu-taichi'
p2862
I1
sS'difficult'
p2863
I5
sS'experimented'
p2864
I1
sS'ball'
p2865
I1
sS'http'
p2866
I6
sS'unconventional'
p2867
I1
sS'cubic'
p2868
I2
sS'fielded'
p2869
I1
sS'premiere'
p2870
I1
sS'drink'
p2871
I1
sS'upon'
p2872
I1
sS'effect'
p2873
I1
sS'cafeterias'
p2874
I1
sS'chivvy'
p2875
I1
sS'student'
p2876
I2
sS'whale'
p2877
I2
sS'php'
p2878
I2
sS'identity'
p2879
I1
sS'destruction'
p2880
I1
sS'we\x92ve'
p2881
I1
sS'1784\x961820'
p2882
I1
sS'correspondent'
p2883
I1
sS'off'
p2884
I8
sS'gnu-linux'
p2885
I1
sS'com'
p2886
I5
sS'weapon'
p2887
I1
sS'well'
p2888
I11
sS'enrichment'
p2889
I2
sS'fighting'
p2890
I2
sS'antonio'
p2891
I1
sS'thought'
p2892
I4
sS'patterns'
p2893
I1
sS'sets'
p2894
I1
sS'position'
p2895
I1
sS'latest'
p2896
I1
sS'newest'
p2897
I1
sS'less'
p2898
I5
sS'42'
p2899
I1
sS'accurate'
p2900
I1
sS'\x93the'
p2901
I1
sS'stored'
p2902
I1
sS'fishing'
p2903
I4
sS'web'
p2904
I36
sS'generous'
p2905
I2
sS'smears'
p2906
I1
sS'logged'
p2907
I2
sS'lake'
p2908
I1
sS'capabilities'
p2909
I2
sS'discuss'
p2910
I1
sS'add'
p2911
I2
sS'other'
p2912
I16
sS'284'
p2913
I1
sS'match'
p2914
I1
sS'details'
p2915
I4
sS'tests'
p2916
I6
sS'increased'
p2917
I2
sS'government'
p2918
I14
sS'haul'
p2919
I1
sS'five'
p2920
I5
sS'know'
p2921
I8
sS'mathematics'
p2922
I1
sS'press'
p2923
I2
sS'looong'
p2924
I1
sS'loss'
p2925
I1
sS'necessary'
p2926
I1
sS'like'
p2927
I31
sS'success'
p2928
I2
sS'yellow-fever'
p2929
I1
sS'edit'
p2930
I3
sS'hosts'
p2931
I1
sS'chick'
p2932
I1
sS'works'
p2933
I1
sS'soft'
p2934
I1
sS'page'
p2935
I10
sS'inexperienced'
p2936
I1
sS'because'
p2937
I10
sS'ballon'
p2938
I1
sS'sequence'
p2939
I1
sS'fending'
p2940
I1
sS'seven-day'
p2941
I1
sS'thief'
p2942
I1
sS'library'
p2943
I1
sS'self'
p2944
I1
sS'platforms'
p2945
I1
sS'enhance'
p2946
I1
sS'111'
p2947
I1
sS'\x94'
I6
sS'113'
p2948
I1
sS'recommendation'
p2949
I1
sS'home'
p2950
I3
sS'empire'
p2951
I1
sS'moho'
p2952
I1
sS'mis-timed'
p2953
I1
sS'happens'
p2954
I1
sS'jeremy'
p2955
I1
sS'lead'
p2956
I4
sS'six-year'
p2957
I1
sS'avoid'
p2958
I1
sS'salaries'
p2959
I1
sS'constantly'
p2960
I3
sS'e-mail'
p2961
I3
sS'does'
p2962
I3
sS'odeon'
p2963
I1
sS'spoilers'
p2964
I1
sS'forgiven'
p2965
I1
sS'bosses'
p2966
I1
sS'leader'
p2967
I2
sS'demonstrated'
p2968
I2
sS'monetary'
p2969
I1
sS'host'
p2970
I1
sS'although'
p2971
I1
sS'described'
p2972
I1
sS'imaginary'
p2973
I1
sS'analyser'
p2974
I1
sS'stage'
p2975
I1
sS'about'
p2976
I42
sS'unwelcome'
p2977
I1
sS'column'
p2978
I2
sS'freedom'
p2979
I1
sS'consciousness'
p2980
I1
sS'fear'
p2981
I3
sS'piled'
p2982
I1
sS'persuaded'
p2983
I2
sS'software'
p2984
I8
sS'own'
p2985
I16
sS'their'
p2986
I38
sS'winamp'
p2987
I1
sS'owe'
p2988
I1
sS'tag'
p2989
I5
sS'billions'
p2990
I4
sS'three'
p2991
I9
sS'assess'
p2992
I1
sS'chris'
p2993
I2
sS'square'
p2994
I2
sS'national'
p2995
I5
sS'joyce'
p2996
I1
sS'roads'
p2997
I1
sS'mod_python'
p2998
I1
sS'additional'
p2999
I1
sS'whom'
p3000
I1
sS'transfer'
p3001
I1
sS'noticed'
p3002
I1
sS'doing'
p3003
I3
sS'naivasha'
p3004
I2
sS'introvert'
p3005
I1
sS'biggest'
p3006
I5
sS'naturally'
p3007
I1
sS'tricky'
p3008
I1
sS'cricket'
p3009
I3
sS'buy'
p3010
I5
sS'north'
p3011
I6
sS"i've"
p3012
I13
sS'bus'
p3013
I1
sS'hq'
p3014
I1
sS'but'
p3015
I68
sS'volume'
p3016
I1
sS'reminds'
p3017
I1
sS'repeated'
p3018
I1
sS'hierarchical'
p3019
I2
sS'editing'
p3020
I1
sS'he'
p3021
I14
sS'count'
p3022
I1
sS'iterates'
p3023
I1
sS'made'
p3024
I9
sS'm\xf6bius'
p3025
I1
sS'whether'
p3026
I2
sS'dangerous'
p3027
I1
sS'cells'
p3028
I3
sS'official'
p3029
I4
sS'rooms'
p3030
I1
sS'signed'
p3031
I1
sS'placed'
p3032
I1
sS'books'
p3033
I5
sS'american-led'
p3034
I1
sS'problem'
p3035
I8
sS'piece'
p3036
I3
sS'minutes'
p3037
I1
sS'cordial'
p3038
I1
sS'supreme'
p3039
I3
sS'pim'
p3040
I1
sS'deaths'
p3041
I1
sS'inadequate'
p3042
I2
sS'contribute'
p3043
I1
sS'pig'
p3044
I1
sS'consumed'
p3045
I1
sS'webpages'
p3046
I1
sS'slumped'
p3047
I1
sS'mauri'
p3048
I1
sS'shooting'
p3049
I1
sS'trailing'
p3050
I1
sS'authority'
p3051
I4
sS'compared'
p3052
I1
sS'48'
p3053
I1
sS'49'
p3054
I1
sS'sharia'
p3055
I1
sS'trials'
p3056
I2
sS'claiming'
p3057
I1
sS'detail'
p3058
I1
sS'virtual'
p3059
I1
sS'debutant'
p3060
I1
sS'overspending'
p3061
I1
sS'book'
p3062
I15
sS'boom'
p3063
I1
sS'cmf'
p3064
I1
sS'outlines'
p3065
I1
sS'conclusion'
p3066
I1
sS'canada'
p3067
I1
sS'repeat'
p3068
I1
sS'kinds'
p3069
I2
sS'\x93it'
p3070
I1
sS'class'
p3071
I1
sS'stay'
p3072
I3
sS'chance'
p3073
I1
sS"america's"
p3074
I1
sS'softest'
p3075
I1
sS'friends'
p3076
I3
sS'christians'
p3077
I1
sS'matrix'
p3078
I3
sS'appoint'
p3079
I1
sS'eu\x92s'
p3080
I2
sS'using'
p3081
I11
sS'bolton'
p3082
I1
sS'lasted'
p3083
I1
sS'pupil'
p3084
I2
sS'recalled'
p3085
I2
sS'eclipsing'
p3086
I1
sS'15-24'
p3087
I1
sS'simpson'
p3088
I1
sS'8th'
p3089
I1
s.